(lp0
(VAdmissions
p1
Vrep
p2
tp3
a(VFag
p4
Vhag
p5
tp6
a(VYasser
p7
VArafat
p8
tp9
a(Vestoy
p10
Vborracha
p11
tp12
a(Vscramble
p13
VUnScramble
p14
tp15
a(Vst
p16
Vlouis
p17
tp18
a(VEva
p19
VAmurri
p20
tp21
a(VMartin
p22
VLuther
p23
tp24
a(Vtrials
p25
Vthrought
p26
tp27
a(Vvon
p28
VTrapps
p29
tp30
a(VChuck
p31
VNorris
p32
tp33
a(VDaffy
p34
VDuck
p35
tp36
a(VDonald
p37
VTrump
p38
tp39
a(VLes
p40
VMis
p41
tp42
a(VLicense
p43
VAgreement
p44
tp45
a(VNatalie
p46
VPortman
p47
tp48
a(Vdunkin
p49
Vdonuts
p50
tp51
a(VDiet
p52
VCoke
p53
tp54
a(VPrivate
p55
VMessaging
p56
tp57
a(VCharles
p58
VBronson
p59
tp60
a(VLouis
p61
VVuitton
p62
tp63
a(VPaul
p64
VNewman
p65
tp66
a(VClark
p67
VKent
p68
tp69
a(VCote
p70
VRotie
p71
tp72
a(VHillary
p73
VClinton
p74
tp75
a(VTabbed
p76
VBrowsing
p77
tp78
a(VBall
p79
Vlicky
p80
tp81
a(VEpatha
p82
VMerkerson
p83
tp84
a(VGround
p85
VZero
p86
tp87
a(VGrover
p88
VCleveland
p89
tp90
a(VHand
p91
VGrenade
p92
tp93
a(VJodie
p94
VFoster
p95
tp96
a(VPower
p97
Vwalker
p98
tp99
a(VStaff
p100
Vmember
p101
tp102
a(VStar
p103
VWars
p104
tp105
a(VWebster
p106
VHall
p107
tp108
a(VTrading
p109
VCompany
p110
tp111
a(VDawnstar
p112
VVisit
p113
tp114
a(Vadobe
p115
Vreader
p116
tp117
a(VHarry
p118
VPotter
p119
tp120
a(VBrother
p121
VMaynard
p122
tp123
a(VMark
p124
VRiley
p125
tp126
a(VTaco
p127
VBell
p128
tp129
a(VTrade
p130
VCenter
p131
tp132
a(VBeer
p133
VPong
p134
tp135
a(VTony
p136
VDanza
p137
tp138
a(VUnited
p139
VStates
p140
tp141
a(Vjesus
p142
g25
tp143
a(VAnthony
p144
VWeiner
p145
tp146
a(VTrust
p147
Vfund
p148
tp149
a(Vdona
p150
Veis
p151
tp152
a(Vdramatic
p153
Vchord
p154
tp155
a(g151
Vrequiem
p156
tp157
a(Vlez
p158
Vgurls
p159
tp160
a(Voi
p161
Voi
p162
tp163
a(VIllegal
p164
Vinstruction
p165
tp166
a(VAnn
p167
VCoulter
p168
tp169
a(VDa
p170
Vlitozo
p171
tp172
a(VIndia
p173
g109
tp174
a(VMeth
p175
Vaddict
p176
tp177
a(Vcontact
p178
g112
tp179
a(Vtightly
p180
Vwound
p181
tp182
a(VEdinburgh
p183
VTrader
p184
tp185
a(VAnne
p186
VFrank
p187
tp188
a(VIesu
p189
Vdomine
p190
tp191
a(VPie
p192
g189
tp193
a(VDeaf
p194
VMalay
p195
tp196
a(VEmpire
p197
VState
p198
tp199
a(VParis
p200
VHilton
p201
tp202
a(VTeddy
p203
VRoosevelt
p204
tp205
a(Vteddy
p206
Vbear
p207
tp208
a(Vpit
p209
Vbull
p210
tp211
a(Vsales
p212
Vtax
p213
tp214
a(VLas
p215
VVegas
p216
tp217
a(VRelease
p218
VNotes
p219
tp220
a(VBuilding
p221
Vengineer
p222
tp223
a(VLove
p224
VLucy
p225
tp226
a(VEntry
p227
VPoint
p228
tp229
a(VPenn
p230
VStation
p231
tp232
a(VAnorexic
p233
Vdancer
p234
tp235
a(Vguitar
p236
Vrocker
p237
tp238
a(VIncredibly
p239
VJappy
p240
tp241
a(VTour
p242
Vguide
p243
tp244
a(VVinci
p245
VCode
p246
tp247
a(Vbarrel
p248
Vsamples
p249
tp250
a(Vmooring
p251
Vlines
p252
tp253
a(VLime
p254
VPlayer
p255
tp256
a(VShrewd
p257
Vobserver
p258
tp259
a(Vgiggle
p260
Vgiggle
p261
tp262
a(VPuerto
p263
VRican
p264
tp265
a(Vhermit
p266
Vcrab
p267
tp268
a(VDavid
p269
VBlaine
p270
tp271
a(VDavid
p272
VCopperfield
p273
tp274
a(VPuerto
p275
VRico
p276
tp277
a(Vgently
p278
Vkisses
p279
tp280
a(VSoftware
p281
g43
tp282
a(Vmixed
p283
Vfeelings
p284
tp285
a(VPort
p286
VRoyal
p287
tp288
a(Vanimated
p289
Vgifs
p290
tp291
a(VDa
p292
VVinci
p293
tp294
a(VTom
p295
VCruise
p296
tp297
a(VCastle
p298
VAnthrax
p299
tp300
a(Vpremature
p301
Voxidation
p302
tp303
a(VDaily
p304
VNews
p305
tp306
a(VDew
p307
VPoint
p308
tp309
a(Vsizer
p310
Vgrip
p311
tp312
a(Vhaw
p313
Vhaw
p314
tp315
a(Vyada
p316
Vyada
p317
tp318
a(VPolice
p319
Vofficer
p320
tp321
a(VFlight
p322
Vattendant
p323
tp324
a(VTia
p325
VDalma
p326
tp327
a(Vbodes
p328
Vill
p329
tp330
a(Vdual
p331
Vmonitors
p332
tp333
a(Vnative
p334
VGnome
p335
tp336
a(VChocolate
p337
Vmatzoh
p338
tp339
a(VMichael
p340
VJackson
p341
tp342
a(VHealth
p343
Vservices
p344
tp345
a(VSidewalk
p346
Vvendor
p347
tp348
a(VWorld
p349
g130
tp350
a(Vlead
p351
Vsinger
p352
tp353
a(g198
VBuilding
p354
tp355
a(Vshalt
p356
Vthou
p357
tp358
a(VRed
p359
VSox
p360
tp361
a(VAdobe
p362
VReader
p363
tp364
a(VConnection
p365
VSettings
p366
tp367
a(Vbin
p368
VLaden
p369
tp370
a(Vdrug
p371
Vdealer
p372
tp373
a(Vstuffin'
p374
Voutta
p375
tp376
a(VArt
p377
Vmagazine
p378
tp379
a(Vpeanut
p380
Vbutter
p381
tp382
a(V<empty>
p383
V<empty>
p384
tp385
a(VMets
p386
Vfan
p387
tp388
a(VCash
p389
Vregister
p390
tp391
a(Vrum
p392
Vsoaked
p393
tp394
a(Vpeg
p395
Vleg
p396
tp397
a(Vcpu
p398
Vutilization
p399
tp400
a(Vsegmentation
p401
Vfault
p402
tp403
a(Vuncaught
p404
Vexception
p405
tp406
a(VUniformed
p407
Vemployee
p408
tp409
a(Vmotion
p410
Vscene
p411
tp412
a(VRound
p413
VTable
p414
tp415
a(Vmatzoh
p416
Vball
p417
tp418
a(VSt
p419
VEmilion
p420
tp421
a(Vbamboo
p422
Vpole
p423
tp424
a(Vangels
p425
Vsing
p426
tp427
a(Vcredit
p428
Vcards
p429
tp430
a(Vair
p431
Vconditioning
p432
tp433
a(Vbattle
p434
Vevil
p435
tp436
a(g56
Vothers
p437
tp438
a(VMickey
p439
VMouse
p440
tp441
a(Vbeer
p442
Vpong
p443
tp444
a(VManage
p445
VCertificates
p446
tp447
a(Vonline
p448
Vbanking
p449
tp450
a(Vfinancially
p451
Vsecure
p452
tp453
a(VCity
p454
VBallet
p455
tp456
a(VNobody
p457
Vcares
p458
tp459
a(Vfootball
p460
Vteam
p461
tp462
a(VPark
p463
VSlope
p464
tp465
a(Vblue
p466
Vcheer
p467
tp468
a(Vchicken
p469
Vnuggets
p470
tp471
a(Vmonkey
p472
Vchatters
p473
tp474
a(Vvisual
p475
Vindication
p476
tp477
a(Vcrab
p478
Vclaws
p479
tp480
a(Vcrab
p481
Vsalad
p482
tp483
a(VOffice
p484
Vthug
p485
tp486
a(VFlying
p487
VDutchman
p488
tp489
a(VWilliam
p490
VTurner
p491
tp492
a(Vundefined
p493
Ventity
p494
tp495
a(VLeonardo
p496
Vda
p497
tp498
a(VUncaught
p499
Vexception
p500
tp501
a(VVegan
p502
Vsmoker
p503
tp504
a(Vgolf
p505
Vclub
p506
tp507
a(VQuick
p508
VLaunch
p509
tp510
a(VHighly
p511
Vconcentrated
p512
tp513
a(Vaviary
p514
Vbranch
p515
tp516
a(Vcottage
p517
Vcheese
p518
tp519
a(VMister
p520
VTurner
p521
tp522
a(Vcannibal
p523
Vdrums
p524
tp525
a(VWorld
p526
VWar
p527
tp528
a(Vholocaust
p529
Vnames
p530
tp531
a(VCritical
p532
VUpdate
p533
tp534
a(Vfifty
p535
Vcents
p536
tp537
a(Vdollar
p538
Vbill
p539
tp540
a(VEuro
p541
Vhipster
p542
tp543
a(VGeorge
p544
VBush
p545
tp546
a(VSaved
p547
VPasswords
p548
tp549
a(VUnion
p550
VSquare
p551
tp552
a(Vde
p553
VMuerta
p554
tp555
a(VEastern
p556
VEuropean
p557
tp558
a(VAdobe
p559
VAcrobat
p560
tp561
a(VCollege
p562
Vapplicant
p563
tp564
a(Vbasic
p565
Vauth
p566
tp567
a(Vposs
p568
Vrship
p569
tp570
a(Vclap
p571
Vclap
p572
tp573
a(VFull
p574
VScreen
p575
tp576
a(VHealthy
p577
Vcolour
p578
tp579
a(Vw
p580
Vere
p581
tp582
a(Vcough
p583
Vcough
p584
tp585
a(Vsocial
p586
Vdrinker
p587
tp588
a(VSouth
p589
VOrange
p590
tp591
a(VLocate
p592
VLink
p593
tp594
a(VEver
p595
Vnotice
p596
tp597
a(Vfried
p598
Vrice
p599
tp600
a(Vkosher
p601
Vsymbol
p602
tp603
a(Vsqueak
p604
Vsqueak
p605
tp606
a(VPopup
p607
VBlocking
p608
tp609
a(Vmumble
p610
Vmumble
p611
tp612
a(Vhee
p613
Vhee
p614
tp615
a(Vthird
p616
Vrail
p617
tp618
a(VYuppie
p619
Vtween
p620
tp621
a(VEast
p622
VSide
p623
tp624
a(VGrand
p625
VCentral
p626
tp627
a(Vcoconut
p628
Vpalm
p629
tp630
a(VInternet
p631
VKeywords
p632
tp633
a(g23
VKing
p634
tp635
a(VJones
p636
Vstomps
p637
tp638
a(VLimo
p639
Vdriver
p640
tp641
a(Vendless
p642
Vloop
p643
tp644
a(Vexpress
p645
Vbound
p646
tp647
a(VDavy
p648
VJones
p649
tp650
a(Vcannibal
p651
Vcrosses
p652
tp653
a(Vsocial
p654
Vstudies
p655
tp656
a(VInternet
p657
VExplorer
p658
tp659
a(VUser
p660
VAgent
p661
tp662
a(VIsla
p663
g553
tp664
a(VHoly
p665
g91
tp666
a(Vraw
p667
Vfish
p668
tp669
a(VPrint
p670
VPreview
p671
tp672
a(g137
VShow
p673
tp674
a(VCentral
p675
VPark
p676
tp677
a(VHispanic
p678
Vthug
p679
tp680
a(Vfingers
p681
Vthru
p682
tp683
a(VBus
p684
Vdriver
p685
tp686
a(VProfile
p687
VMigrator
p688
tp689
a(Vcaps
p690
Vlock
p691
tp692
a(Vcertain
p693
Vconditions
p694
tp695
a(VAirport
p696
Vsecurity
p697
tp698
a(VUpper
p699
g622
tp700
a(Vjava
p701
Vapplets
p702
tp703
a(VForm
p704
VInformation
p705
tp706
a(VEast
p707
g173
tp708
a(VCookie
p709
VExceptions
p710
tp711
a(Vquiet
p712
Vnights
p713
tp714
a(Vblocker
p715
Vblocks
p716
tp717
a(Vblah
p718
Vblah
p719
tp720
a(VTimes
p721
VSquare
p722
tp723
a(Vlap
p724
Vdance
p725
tp726
a(VGeorgie
p727
VBoy
p728
tp729
a(VTeenage
p730
Vcashier
p731
tp732
a(VInternet
p733
VShortcuts
p734
tp735
a(Vclop
p736
Vclop
p737
tp738
a(VHoly
p739
VGrail
p740
tp741
a(Vacross
p742
Vsessions
p743
tp744
a(Vball
p745
Vmagazine
p746
tp747
a(Vsimilar
p748
Vinterests
p749
tp750
a(VVendor
p751
Vhippie
p752
tp753
a(Vanimated
p754
Vgif
p755
tp756
a(VFeature
p757
VRequest
p758
tp759
a(Vice
p760
Vcream
p761
tp762
a(VJava
p763
VApplets
p764
tp765
a(VNorrington
p766
Vvomits
p767
tp768
a(VEast
p769
VVillage
p770
tp771
a(VRhode
p772
VIsland
p773
tp774
a(VStaten
p775
VIsland
p776
tp777
a(VMacromedia
p778
VFlash
p779
tp780
a(Voverwrites
p781
Vexisting
p782
tp783
a(VBagel
p784
Vcustomer
p785
tp786
a(VKing
p787
VKong
p788
tp789
a(Vgreen
p790
Vrim
p791
tp792
a(VConstruction
p793
Vworker
p794
tp795
a(Vfalls
p796
Vsilent
p797
tp798
a(VOf
p799
Vcourse
p800
tp801
a(Vinfinite
p802
Vloop
p803
tp804
a(Vtending
p805
Vtowards
p806
tp807
a(VNever
p808
Vmind
p809
tp810
a(Vworst
p811
Vfear
p812
tp813
a(VWeb
p814
VFeatures
p815
tp816
a(Vscene
p817
Vtwenty
p818
tp819
a(Vconnection
p820
Vrefused
p821
tp822
a(Vmature
p823
VClaret
p824
tp825
a(Vdual
p826
Vmonitor
p827
tp828
a(Vsecondary
p829
Vmonitor
p830
tp831
a(VConey
p832
VIsland
p833
tp834
a(Valternate
p835
Vstylesheet
p836
tp837
a(Vtalkin
p838
Vbout
p839
tp840
a(Vorange
p841
Vjuice
p842
tp843
a(VModerate
p844
Vweight
p845
tp846
a(Vcontributor
p847
Vinformation
p848
tp849
a(Vproducers
p850
Vwines
p851
tp852
a(Vfell
p853
Vasleep
p854
tp855
a(Vporn
p856
Vstar
p857
tp858
a(Vflight
p859
Vattendant
p860
tp861
a(VJava
p862
VConsole
p863
tp864
a(VWall
p865
VStreet
p866
tp867
a(Vcritical
p868
Vupdate
p869
tp870
a(Vhour
p871
Vminimum
p872
tp873
a(Vla
p874
Vla
p875
tp876
a(VSmall
p877
VIcons
p878
tp879
a(VStrange
p880
Vbehaviour
p881
tp882
a(VSir
p883
VRobin
p884
tp885
a(VDeep
p886
Vcolour
p887
tp888
a(VEastern
p889
Vowner
p890
tp891
a(Vmedia
p892
Vplayer
p893
tp894
a(Vboth
p895
Vsides
p896
tp897
a(VPunk
p898
Vrock
p899
tp900
a(Vsong
p901
Vlasts
p902
tp903
a(Vmillion
p904
Vdollars
p905
tp906
a(VParsing
p907
VError
p908
tp909
a(Vcharacter
p910
Vcoding
p911
tp912
a(Vextremely
p913
Vslow
p914
tp915
a(VWinXP
p916
VStart
p917
tp918
a(g497
VVinci
p919
tp920
a(VSoftware
p921
VUpdate
p922
tp923
a(VStand
p924
Vclear
p925
tp926
a(VBoy
p927
Vgenius
p928
tp929
a(VAbandon
p930
Vship
p931
tp932
a(Vscuttled
p933
Vship
p934
tp935
a(VSelection
p936
VSource
p937
tp938
a(VTall
p939
Vthug
p940
tp941
a(Vdecide
p942
Vwhether
p943
tp944
a(Vcredit
p945
Vcard
p946
tp947
a(VLoad
p948
VImages
p949
tp950
a(Vpound
p951
Vpound
p952
tp953
a(Vhelper
p954
Vapp
p955
tp956
a(VBimbo
p957
Vtourist
p958
tp959
a(Vmorning
p960
Vrubber
p961
tp962
a(VUrinal
p963
Vuser
p964
tp965
a(Vincorrectly
p966
Vsized
p967
tp968
a(Vrope
p969
Vbridge
p970
tp971
a(VDrop
p972
VDown
p973
tp974
a(Vspring
p975
Vbreak
p976
tp977
a(VGoth
p978
Vsmoker
p979
tp980
a(VTabbrowser
p981
VExtension
p982
tp983
a(VText
p984
VSize
p985
tp986
a(Vslow
p987
g410
tp988
a(VCanal
p989
VStreet
p990
tp991
a(Vsauce
p992
Vsauce
p993
tp994
a(Vsecurity
p995
Vguard
p996
tp997
a(VFeature
p998
Vrequest
p999
tp1000
a(VLong
p1001
VIsland
p1002
tp1003
a(VCrazy
p1004
Vcodger
p1005
tp1006
a(VSir
p1007
VGalahad
p1008
tp1009
a(Vaerial
p1010
Vview
p1011
tp1012
a(VSkater
p1013
Vkid
p1014
tp1015
a(VBoy
p1016
Vattorney
p1017
tp1018
a(VStill
p1019
Vimproving
p1020
tp1021
a(VWashington
p1022
VSquare
p1023
tp1024
a(Vsucculent
p1025
Vtannins
p1026
tp1027
a(Vrelease
p1028
Vnotes
p1029
tp1030
a(VSaved
p1031
VForm
p1032
tp1033
a(VHeh
p1034
Vheh
p1035
tp1036
a(Vvertical
p1037
Vscrollbar
p1038
tp1039
a(VYahoo
p1040
VMail
p1041
tp1042
a(VAutomatic
p1043
Vproxy
p1044
tp1045
a(VType
p1046
Vahead
p1047
tp1048
a(VKing
p1049
VArthur
p1050
tp1051
a(VSir
p1052
VBedevere
p1053
tp1054
a(Vagent
p1055
Vstring
p1056
tp1057
a(Vcaret
p1058
Vbrowsing
p1059
tp1060
a(VBlock
p1061
VImages
p1062
tp1063
a(Vfried
p1064
Vchicken
p1065
tp1066
a(Vtracking
p1067
Vbug
p1068
tp1069
a(Vsingle
p1070
Vmum
p1071
tp1072
a(VSouth
p1073
VBronx
p1074
tp1075
a(Vbrown
p1076
Vrice
p1077
tp1078
a(Vencrypted
p1079
Vconnection
p1080
tp1081
a(Vfail
p1082
Vsilently
p1083
tp1084
a(VMe
p1085
Vneither
p1086
tp1087
a(Vnative
p1088
Vlanguage
p1089
tp1090
a(VSelect
p1091
VUser
p1092
tp1093
a(Vprimary
p1094
Vmonitor
p1095
tp1096
a(Vtimes
p1097
V.. .
p1098
tp1099
a(Vcage
p1100
Vrolls
p1101
tp1102
a(Vpermanent
p1103
Vrelationship
p1104
tp1105
a(Vbirth
p1106
Vcontrol
p1107
tp1108
a(Vcontrol
p1109
Vbot
p1110
tp1111
a(VBe
p1112
Vquiet
p1113
tp1114
a(VThree
p1115
Vquestions
p1116
tp1117
a(VFemale
p1118
Vfuture
p1119
tp1120
a(Vclearing
p1121
Vcache
p1122
tp1123
a(Vhover
p1124
Vstate
p1125
tp1126
a(VMaster
p1127
VPassword
p1128
tp1129
a(Vgrade
p1130
Vtest
p1131
tp1132
a(VClose
p1133
VOther
p1134
tp1135
a(VLate
p1136
VShow
p1137
tp1138
a(V. .
p1139
VLoL
p1140
tp1141
a(Vliquor
p1142
Vstore
p1143
tp1144
a(Vuser
p1145
Vagent
p1146
tp1147
a(Vkeeps
p1148
Vrefreshing
p1149
tp1150
a(Vbrown
p1151
Vsugar
p1152
tp1153
a(VHappy
p1154
VFather
p1155
tp1156
a(VBlonde
p1157
Vmodel
p1158
tp1159
a(VPopup
p1160
Vblocker
p1161
tp1162
a(Vsocial
p1163
Vworker
p1164
tp1165
a(Vtoilet
p1166
Vpaper
p1167
tp1168
a(VBrooklyn
p1169
VUniversity
p1170
tp1171
a(Vgarbage
p1172
Vcharacters
p1173
tp1174
a(Vvideo
p1175
Vgames
p1176
tp1177
a(VDownloads
p1178
VComplete
p1179
tp1180
a(VSir
p1181
VKnight
p1182
tp1183
a(Vremove
p1184
Vunused
p1185
tp1186
a(Vsmooth
p1187
Vscrolling
p1188
tp1189
a(Vf
p1190
Vtx
p1191
tp1192
a(Vquery
p1193
Vstring
p1194
tp1195
a(Vpleasantly
p1196
Vdrinkable
p1197
tp1198
a(Vthird
p1199
Vgrade
p1200
tp1201
a(Vlarge
p1202
Vtrout
p1203
tp1204
a(Voriginating
p1205
VWeb
p1206
tp1207
a(VReally
p1208
Vtrendy
p1209
tp1210
a(Voral
p1211
Vsex
p1212
tp1213
a(Vsource
p1214
Vviewer
p1215
tp1216
a(Vbusy
p1217
Vbusy
p1218
tp1219
a(VBlind
p1220
Vdate
p1221
tp1222
a(Vai
p1223
Vn't
p1224
tp1225
a(VAt
p1226
Vleast
p1227
tp1228
a(VStreet
p1229
Vvendor
p1230
tp1231
a(Vmultiple
p1232
Vhomepages
p1233
tp1234
a(VYo
p1235
g10
tp1236
a(Vmail
p1237
Vclient
p1238
tp1239
a(VGod
p1240
VSquad
p1241
tp1242
a(VLoud
p1243
Vcustomer
p1244
tp1245
a(VTo
p1246
VDisk
p1247
tp1248
a(Vmonitor
p1249
Vsetup
p1250
tp1251
a(Vnightly
p1252
Vbuilds
p1253
tp1254
a(VUse
p1255
VCurrent
p1256
tp1257
a(Vice
p1258
Vtea
p1259
tp1260
a(Vpercent
p1261
Vvalue
p1262
tp1263
a(VView
p1264
VSource
p1265
tp1266
a(Vcustomizing
p1267
Vtoolbars
p1268
tp1269
a(g917
VMenu
p1270
tp1271
a(VDesi
p1272
Vkid
p1273
tp1274
a(Vgave
p1275
Vbirth
p1276
tp1277
a(VFemale
p1278
Vsuit
p1279
tp1280
a(Vjs
p1281
Vconsole
p1282
tp1283
a(VMedium
p1284
Vweight
p1285
tp1286
a(Vlaw
p1287
Vstudent
p1288
tp1289
a(VJava
p1290
VPlug
p1291
tp1292
a(VJava
p1293
Vapplet
p1294
tp1295
a(VRoosevelt
p1296
VIsland
p1297
tp1298
a(Vjava
p1299
Vapplet
p1300
tp1301
a(VCommuter
p1302
Vdude
p1303
tp1304
a(VBiker
p1305
Vdude
p1306
tp1307
a(VFrench
p1308
Vaccent
p1309
tp1310
a(Vstops
p1311
Vresponding
p1312
tp1313
a(Vyahoo
p1314
Vmail
p1315
tp1316
a(Vnetwork
p1317
Vdrive
p1318
tp1319
a(VStoned
p1320
Vkid
p1321
tp1322
a(Vca
p1323
Vn't
p1324
tp1325
a(VBuild
p1326
Vfailure
p1327
tp1328
a(VSouth
p1329
VAmerica
p1330
tp1331
a(Vprint
p1332
Vpreview
p1333
tp1334
a(Vselling
p1335
Vcandy
p1336
tp1337
a(VBrooklyn
p1338
VBridge
p1339
tp1340
a(VSir
p1341
VLauncelot
p1342
tp1343
a(Vmoderate
p1344
Vweight
p1345
tp1346
a(Vwedding
p1347
Vdress
p1348
tp1349
a(VJesus
p1350
VChrist
p1351
tp1352
a(VFlash
p1353
VPlugin
p1354
tp1355
a(Vlatest
p1356
Vnightly
p1357
tp1358
a(Vheh
p1359
Vheh
p1360
tp1361
a(VSun
p1362
VJava
p1363
tp1364
a(Vwo
p1365
Vn't
p1366
tp1367
a(Vthird
p1368
Vbase
p1369
tp1370
a(VContext
p1371
VMenus
p1372
tp1373
a(VSecurity
p1374
Vguard
p1375
tp1376
a(VStatus
p1377
VBar
p1378
tp1379
a(g159
Vpm
p1380
tp1381
a(VJunior
p1382
Vhigh
p1383
tp1384
a(VMale
p1385
Vtwins
p1386
tp1387
a(Vcountry
p1388
Vdrives
p1389
tp1390
a(Vtabbed
p1391
Vbrowsing
p1392
tp1393
a(VLocation
p1394
VBar
p1395
tp1396
a(VView
p1397
g936
tp1398
a(Vmedium
p1399
Vweight
p1400
tp1401
a(Vbefore
p1402
g55
tp1403
a(VCustomize
p1404
VToolbars
p1405
tp1406
a(Vmemory
p1407
Vusage
p1408
tp1409
a(Vred
p1410
Vfruits
p1411
tp1412
a(Vvideo
p1413
Vgame
p1414
tp1415
a(Vcompletely
p1416
Vresolved
p1417
tp1418
a(VPage
p1419
VInfo
p1420
tp1421
a(Vfullscreen
p1422
Vmode
p1423
tp1424
a(Vuser
p1425
Vaccounts
p1426
tp1427
a(VScroll
p1428
Vbars
p1429
tp1430
a(VObnoxious
p1431
Vwhite
p1432
tp1433
a(VCaptain
p1434
VSparrow
p1435
tp1436
a(VGerman
p1437
Vgirlfriend
p1438
tp1439
a(VLiam
p1440
V's
p1441
tp1442
a(Vfairly
p1443
Vsimple
p1444
tp1445
a(VLord
p1446
VBeckett
p1447
tp1448
a(Vwana
p1449
Vchat
p1450
tp1451
a(Vsingle
p1452
Vparent
p1453
tp1454
a(VGod
p1455
Vbless
p1456
tp1457
a(Vport
p1458
Vfix
p1459
tp1460
a(VAt
p1461
Vpeak
p1462
tp1463
a(Vfinishes
p1464
Vloading
p1465
tp1466
a(Vplease
p1467
g178
tp1468
a(Vbrave
p1469
VSir
p1470
tp1471
a(Vsix
p1472
Vmonths
p1473
tp1474
a(Vurlbar
p1475
Vdropdown
p1476
tp1477
a(VDrinking
p1478
Vnicely
p1479
tp1480
a(VOutlook
p1481
VWeb
p1482
tp1483
a(VExcellent
p1484
Vconcentration
p1485
tp1486
a(Vmaster
p1487
Vpassword
p1488
tp1489
a(VDrunk
p1490
VIrishman
p1491
tp1492
a(VBlack
p1493
VBeast
p1494
tp1495
a(Vmotherfucking
p1496
Vjob
p1497
tp1498
a(Vorgan
p1499
Vmusic
p1500
tp1501
a(VFemale
p1502
Vstudent
p1503
tp1504
a(Vframed
p1505
Vpages
p1506
tp1507
a(Vsplash
p1508
Vscreen
p1509
tp1510
a(Vshakes
p1511
Vhead
p1512
tp1513
a(VNot
p1514
VRated
p1515
tp1516
a(Vspeak
p1517
VSpanish
p1518
tp1519
a(VQuick
p1520
VSearch
p1521
tp1522
a(Vkeyboard
p1523
Vshortcut
p1524
tp1525
a(Vform
p1526
Vsubmission
p1527
tp1528
a(Vstored
p1529
Vpasswords
p1530
tp1531
a(VWeb
p1532
VAccess
p1533
tp1534
a(Vsnow
p1535
Voutside
p1536
tp1537
a(VMouse
p1538
Vwheel
p1539
tp1540
a(Vhard
p1541
Vcore
p1542
tp1543
a(g946
Vnumbers
p1544
tp1545
a(VFemale
p1546
Vcustomer
p1547
tp1548
a(Vsoftware
p1549
Vupdate
p1550
tp1551
a(VRiesling
p1552
Vnose
p1553
tp1554
a(g872
Vwait
p1555
tp1556
a(g1134
VTabs
p1557
tp1558
a(Vspeak
p1559
VEnglish
p1560
tp1561
a(VBritish
p1562
Vtourist
p1563
tp1564
a(VPersonal
p1565
VToolbar
p1566
tp1567
a(VOld
p1568
VJewess
p1569
tp1570
a(VKeyboard
p1571
Vshortcut
p1572
tp1573
a(Vweb
p1574
Vfeatures
p1575
tp1576
a(Vincorrect
p1577
Vbehaviour
p1578
tp1579
a(Vwhole
p1580
Vpackage
p1581
tp1582
a(VBelligerent
p1583
Vwhite
p1584
tp1585
a(VContext
p1586
VMenu
p1587
tp1588
a(VMiddle
p1589
VEastern
p1590
tp1591
a(VTo
p1592
Vseek
p1593
tp1594
a(Vcage
p1595
Vfalls
p1596
tp1597
a(Vcanada
p1598
Vpm
p1599
tp1600
a(Vexcellent
p1601
Vlength
p1602
tp1603
a(VParalegal
p1604
Vchick
p1605
tp1606
a(g1023
VPark
p1607
tp1608
a(Vsix
p1609
g871
tp1610
a(Vmoderate
p1611
Vacidity
p1612
tp1613
a(VFemale
p1614
Vtwins
p1615
tp1616
a(VError
p1617
VMessage
p1618
tp1619
a(VError
p1620
Vlaunching
p1621
tp1622
a(VJava
p1623
VPlugin
p1624
tp1625
a(Vhappy
p1626
Vmeal
p1627
tp1628
a(VLovely
p1629
Vdelicate
p1630
tp1631
a(Vinternet
p1632
Vconnection
p1633
tp1634
a(Vlaw
p1635
Vschool
p1636
tp1637
a(Vupon
p1638
Vvisiting
p1639
tp1640
a(Vpay
p1641
Vattention
p1642
tp1643
a(Vneeding
p1644
Vdrinking
p1645
tp1646
a(VIsland
p1647
g1287
tp1648
a(VCoworker
p1649
Vchick
p1650
tp1651
a(Vpreppy
p1652
Vchick
p1653
tp1654
a(Vour
p1655
Vrules
p1656
tp1657
a(Vjava
p1658
Vscript
p1659
tp1660
a(Varrow
p1661
Vkeys
p1662
tp1663
a(Vfavorite
p1664
Vcolor
p1665
tp1666
a(VDrunk
p1667
Vtranny
p1668
tp1669
a(Vjoining
p1670
Vus
p1671
tp1672
a(Vfully
p1673
Vloaded
p1674
tp1675
a(Vfully
p1676
Vmature
p1677
tp1678
a(VEnglish
p1679
Vk
p1680
tp1681
a(Vspecial
p1682
Vsauce
p1683
tp1684
a(Vcertain
p1685
Vwebsites
p1686
tp1687
a(Vdrag
p1688
Vqueen
p1689
tp1690
a(VHigh
p1691
Vschool
p1692
tp1693
a(VBlack
p1694
VPearl
p1695
tp1696
a(Vboth
p1697
Vways
p1698
tp1699
a(VNew
p1700
VYork
p1701
tp1702
a(VNew
p1703
VYorker
p1704
tp1705
a(VNew
p1706
VYorkers
p1707
tp1708
a(Vterm
p1709
Vrelationship
p1710
tp1711
a(VJack
p1712
Vstruggles
p1713
tp1714
a(Vbefore
p1715
Vfinishing
p1716
tp1717
a(VSet
p1718
VDefault
p1719
tp1720
a(Vpopup
p1721
Vwhitelist
p1722
tp1723
a(VPressing
p1724
VCtrl
p1725
tp1726
a(Vproxy
p1727
Vserver
p1728
tp1729
a(Vsteals
p1730
Vfocus
p1731
tp1732
a(VYahoo
p1733
Vmail
p1734
tp1735
a(Vmime
p1736
Vtype
p1737
tp1738
a(VSave
p1739
VLink
p1740
tp1741
a(g1044
Vconfiguration
p1742
tp1743
a(Vscreen
p1744
Vresolution
p1745
tp1746
a(Vproxy
p1747
Vsettings
p1748
tp1749
a(Vbirthday
p1750
Vparty
p1751
tp1752
a(VKnights
p1753
VWho
p1754
tp1755
a(Vmouse
p1756
Vclicks
p1757
tp1758
a(Vquit
p1759
Vsmoking
p1760
tp1761
a(Vpopup
p1762
Vblocking
p1763
tp1764
a(Vu
p1765
Vtryin
p1766
tp1767
a(Vhelper
p1768
Vapplication
p1769
tp1770
a(Vboom
p1771
Vboom
p1772
tp1773
a(g1473
Vago
p1774
tp1775
a(Vsearch
p1776
Vengines
p1777
tp1778
a(Vtheir
p1779
Vswords
p1780
tp1781
a(VVery
p1782
Vpale
p1783
tp1784
a(VVery
p1785
g1652
tp1786
a(Vten
p1787
Vdollars
p1788
tp1789
a(Vimage
p1790
Vresizing
p1791
tp1792
a(g1050
Vmusic
p1793
tp1794
a(Vfive
p1795
Vdollar
p1796
tp1797
a(Vaged
p1798
VItalian
p1799
tp1800
a(Vunder
p1801
VBeOS
p1802
tp1803
a(Vcannibal
p1804
Vwomen
p1805
tp1806
a(Vnon
p1807
Vsmoker
p1808
tp1809
a(Vcomedy
p1810
Vshow
p1811
tp1812
a(Vfont
p1813
Vsize
p1814
tp1815
a(Vfew
p1816
Vweeks
p1817
tp1818
a(Vhundred
p1819
Vdollars
p1820
tp1821
a(VNot
p1822
VFound
p1823
tp1824
a(Vincredibly
p1825
Vold
p1826
tp1827
a(VYork
p1828
VCity
p1829
tp1830
a(Vscroll
p1831
Vbars
p1832
tp1833
a(Vjavascript
p1834
Vconsole
p1835
tp1836
a(Vcombo
p1837
Vbox
p1838
tp1839
a(Vsweet
p1840
Vstrawberry
p1841
tp1842
a(VJava
p1843
Vplug
p1844
tp1845
a(Vfun
p1846
Vloving
p1847
tp1848
a(VStoner
p1849
Vdude
p1850
tp1851
a(VCollege
p1852
Vstudent
p1853
tp1854
a(Vsearch
p1855
Vengine
p1856
tp1857
a(Vsank
p1858
Vinto
p1859
tp1860
a(VAddress
p1861
VBar
p1862
tp1863
a(VDeaf
p1864
Vgay
p1865
tp1866
a(Vseeing
p1867
Veye
p1868
tp1869
a(VRun
p1870
Vaway
p1871
tp1872
a(VAdvanced
p1873
VJavascript
p1874
tp1875
a(VBlock
p1876
Vimages
p1877
tp1878
a(Vkeyboard
p1879
Vshortcuts
p1880
tp1881
a(Vstay
p1882
Vchecked
p1883
tp1884
a(VJack
p1885
VSparrow
p1886
tp1887
a(Vgangsta
p1888
Vkid
p1889
tp1890
a(Vlittle
p1891
Vvest
p1892
tp1893
a(VSearch
p1894
Vengine
p1895
tp1896
a(VSend
p1897
VPage
p1898
tp1899
a(Vexternal
p1900
Vprogram
p1901
tp1902
a(Vhappy
p1903
Vbirthday
p1904
tp1905
a(g575
Vmode
p1906
tp1907
a(Vfatal
p1908
Verror
p1909
tp1910
a(Vemergency
p1911
Vroom
p1912
tp1913
a(VToolbar
p1914
VFolder
p1915
tp1916
a(Vclosing
p1917
Vdoors
p1918
tp1919
a(VJack
p1920
Vspots
p1921
tp1922
a(Vcookie
p1923
Vexception
p1924
tp1925
a(Vpopup
p1926
Vblocker
p1927
tp1928
a(Vass
p1929
Vwhipped
p1930
tp1931
a(VNot
p1932
Vunlike
p1933
tp1934
a(VInstalling
p1935
Vextensions
p1936
tp1937
a(Vfinished
p1938
Vdownloading
p1939
tp1940
a(Vuses
p1941
Vexisting
p1942
tp1943
a(Vover
p1944
Vcounselor
p1945
tp1946
a(Vparsing
p1947
Verror
p1948
tp1949
a(Vdead
p1950
Vanimal
p1951
tp1952
a(VVisitor
p1953
Vlady
p1954
tp1955
a(VBag
p1956
Vlady
p1957
tp1958
a(VFull
p1959
Vscreen
p1960
tp1961
a(VSkinny
p1962
Vwhite
p1963
tp1964
a(VOlder
p1965
Vsister
p1966
tp1967
a(VSystem
p1968
Vpreferences
p1969
tp1970
a(Vsomething
p1971
Vpreggers
p1972
tp1973
a(Vfew
p1974
Vmonths
p1975
tp1976
a(Vshuts
p1977
Vdown
p1978
tp1979
a(Vvillage
p1980
Vwine
p1981
tp1982
a(Vmedium
p1983
Vbuild
p1984
tp1985
a(Vfinished
p1986
Vdownloads
p1987
tp1988
a(Vweekends
p1989
Vaway
p1990
tp1991
a(VKeyboard
p1992
Vinput
p1993
tp1994
a(Vscreen
p1995
Vmode
p1996
tp1997
a(Vsaved
p1998
Vpasswords
p1999
tp2000
a(VHot
p2001
Vdog
p2002
tp2003
a(Vdifference
p2004
Vbetween
p2005
tp2006
a(VWhite
p2007
VCastle
p2008
tp2009
a(Vloses
p2010
Vfocus
p2011
tp2012
a(g1719
VBrowser
p2013
tp2014
a(Vhotter
p2015
Vthan
p2016
tp2017
a(Vsearch
p2018
Vterms
p2019
tp2020
a(Vgets
p2021
Vstuck
p2022
tp2023
a(Vpress
p2024
Venter
p2025
tp2026
a(Vview
p2027
Vsource
p2028
tp2029
a(VNavigation
p2030
VToolbar
p2031
tp2032
a(VPrint
p2033
Vpreview
p2034
tp2035
a(VSave
p2036
VAs
p2037
tp2038
a(Vkilling
p2039
Vmyself
p2040
tp2041
a(Vradio
p2042
Vbuttons
p2043
tp2044
a(VDoes
p2045
Vanybody
p2046
tp2047
a(Vplease
p2048
Vstep
p2049
tp2050
a(VBusinessman
p2051
Vlady
p2052
tp2053
a(VPassword
p2054
VManager
p2055
tp2056
a(Vdessert
p2057
Vwine
p2058
tp2059
a(Vinput
p2060
Vfields
p2061
tp2062
a(VManage
p2063
VBookmarks
p2064
tp2065
a(VBig
p2066
VMac
p2067
tp2068
a(Vupstaged
p2069
Vby
p2070
tp2071
a(VGhetto
p2072
Vteen
p2073
tp2074
a(VGood
p2075
Vafternoon
p2076
tp2077
a(Vexcellent
p2078
Vacidity
p2079
tp2080
a(VYork
p2081
VTimes
p2082
tp2083
a(VAbout
p2084
g607
tp2085
a(Vnothing
p2086
Vhappens
p2087
tp2088
a(Vallow
p2089
Vpopups
p2090
tp2091
a(Vkept
p2092
Vsaying
p2093
tp2094
a(Vmusic
p2095
Vstops
p2096
tp2097
a(Vgetting
p2098
Vlaid
p2099
tp2100
a(VHas
p2101
Vanyone
p2102
tp2103
a(Vautocomplete
p2104
Vresult
p2105
tp2106
a(Vbit
p2107
Vfaded
p2108
tp2109
a(Vbit
p2110
Vstinky
p2111
tp2112
a(VNice
p2113
Vintensity
p2114
tp2115
a(Vweb
p2116
Vpanels
p2117
tp2118
a(VTweenie
p2119
Vboy
p2120
tp2121
a(Vjava
p2122
Vplugin
p2123
tp2124
a(Vfull
p2125
g1995
tp2126
a(Vavailable
p2127
Vdoors
p2128
tp2129
a(Vsaw
p2130
Vsaw
p2131
tp2132
a(VLast
p2133
Vseen
p2134
tp2135
a(Vcurrent
p2136
Vsession
p2137
tp2138
a(Vfile
p2139
Vassociations
p2140
tp2141
a(Vbit
p2142
Vcoarse
p2143
tp2144
a(VDownload
p2145
VManager
p2146
tp2147
a(Vfew
p2148
Vyears
p2149
tp2150
a(Vpursued
p2151
Vhim
p2152
tp2153
a(Vinserted
p2154
Vinto
p2155
tp2156
a(g1754
VSay
p2157
tp2158
a(VSave
p2159
VImage
p2160
tp2161
a(Vvertical
p2162
Vscroll
p2163
tp2164
a(Vkey
p2165
Vpressed
p2166
tp2167
a(Vyears
p2168
Vago
p2169
tp2170
a(Vblue
p2171
Veyes
p2172
tp2173
a(Vlonger
p2174
Vworks
p2175
tp2176
a(VSelect
p2177
Vuser
p2178
tp2179
a(Vbone
p2180
Vdry
p2181
tp2182
a(Vmost
p2183
Vrecent
p2184
tp2185
a(Vsort
p2186
Vorder
p2187
tp2188
a(Vhigh
p2189
Vschool
p2190
tp2191
a(Vsecure
p2192
Vsites
p2193
tp2194
a(VHey
p2195
Vmister
p2196
tp2197
a(VNew
p2198
VYear
p2199
tp2200
a(Vcreates
p2201
Vempty
p2202
tp2203
a(Vripe
p2204
Vtannins
p2205
tp2206
a(V'm
p2207
Vlistening
p2208
tp2209
a(Vclear
p2210
Vcache
p2211
tp2212
a(Vinput
p2213
Vboxes
p2214
tp2215
a(VUh
p2216
Vhuh
p2217
tp2218
a(VCookie
p2219
VManager
p2220
tp2221
a(VImage
p2222
Vblocking
p2223
tp2224
a(VLady
p2225
Vlawyer
p2226
tp2227
a(VVoice
p2228
Vover
p2229
tp2230
a(VYoung
p2231
Vqueer
p2232
tp2233
a(Vdrooling
p2234
g1944
tp2235
a(g767
Vover
p2236
tp2237
a(Vhot
p2238
Vsauce
p2239
tp2240
a(Vbranch
p2241
Vbuild
p2242
tp2243
a(Vhttp
p2244
Vauth
p2245
tp2246
a(Vquestion
p2247
Vnumber
p2248
tp2249
a(Vbeen
p2250
Vplayed
p2251
tp2252
a(Vprobably
p2253
Vimprove
p2254
tp2255
a(VRated
p2256
VFrom
p2257
tp2258
a(Vfairly
p2259
Vyoung
p2260
tp2261
a(VModern
p2262
Vtheme
p2263
tp2264
a(Vpurple
p2265
Vhair
p2266
tp2267
a(Vsought
p2268
Vby
p2269
tp2270
a(Vrendered
p2271
Vproperly
p2272
tp2273
a(Vfive
p2274
Vdollars
p2275
tp2276
a(Ventry
p2277
Vfields
p2278
tp2279
a(Vfavorite
p2280
Vmovie
p2281
tp2282
a(Vnightly
p2283
Vbuild
p2284
tp2285
a(Vuk
p2286
Vgirls
p2287
tp2288
a(Vten
p2289
Vyears
p2290
tp2291
a(Vblow
p2292
Vjob
p2293
tp2294
a(Vwanna
p2295
Vchat
p2296
tp2297
a(VLong
p2298
Vpause
p2299
tp2300
a(g2160
VAs
p2301
tp2302
a(VJava
p2303
Vplugin
p2304
tp2305
a(Vchild
p2306
Vsupport
p2307
tp2308
a(Vfile
p2309
Vassociation
p2310
tp2311
a(Vbit
p2312
Vvolatile
p2313
tp2314
a(VExtension
p2315
Vinstallation
p2316
tp2317
a(VOpen
p2318
VWith
p2319
tp2320
a(Vpeachy
p2321
Vfruit
p2322
tp2323
a(Vvirgin
p2324
Vmale
p2325
tp2326
a(Vthese
p2327
Vdays
p2328
tp2329
a(VAdd
p2330
Vengines
p2331
tp2332
a(VClose
p2333
VTab
p2334
tp2335
a(Vwhite
p2336
VBurgundy
p2337
tp2338
a(Vdisplays
p2339
Vincorrectly
p2340
tp2341
a(Vweb
p2342
Vbased
p2343
tp2344
a(Vtrue
p2345
Vstory
p2346
tp2347
a(Vnicely
p2348
Vbalanced
p2349
tp2350
a(VOr
p2351
Vmaybe
p2352
tp2353
a(Vneeds
p2354
Vupdating
p2355
tp2356
a(Vodd
p2357
Vbottle
p2358
tp2359
a(Vmouse
p2360
Vwheel
p2361
tp2362
a(Vfive
p2363
Vquestions
p2364
tp2365
a(Vminutes
p2366
Vago
p2367
tp2368
a(Vrather
p2369
Vevolved
p2370
tp2371
a(Vcherry
p2372
Vfruit
p2373
tp2374
a(Vnick
p2375
Vname
p2376
tp2377
a(Vpersonal
p2378
Vtoolbar
p2379
tp2380
a(VFlash
p2381
Vplugin
p2382
tp2383
a(Vany
p2384
Vplans
p2385
tp2386
a(Vstop
p2387
Vresponding
p2388
tp2389
a(Vwho
p2390
Venjoys
p2391
tp2392
a(Vother
p2393
Vapplications
p2394
tp2395
a(Vcontext
p2396
Vmenus
p2397
tp2398
a(Vswitching
p2399
Vbetween
p2400
tp2401
a(Vbit
p2402
Vthin
p2403
tp2404
a(VToolbar
p2405
VButtons
p2406
tp2407
a(Vafter
p2408
Vrestoring
p2409
tp2410
a(Vdominated
p2411
Vby
p2412
tp2413
a(Vinvoked
p2414
Vby
p2415
tp2416
a(VCatholic
p2417
Vschool
p2418
tp2419
a(VBlack
p2420
Vcustomer
p2421
tp2422
a(VNew
p2423
VJersey
p2424
tp2425
a(Vpassing
p2426
Vthrough
p2427
tp2428
a(Vplay
p2429
Vgames
p2430
tp2431
a(Vraspberry
p2432
Vfruit
p2433
tp2434
a(VJack
p2435
Vhalts
p2436
tp2437
a(VPage
p2438
VSource
p2439
tp2440
a(Vfive
p2441
Vminutes
p2442
tp2443
a(Vtheir
p2444
Vfingers
p2445
tp2446
a(Vdecent
p2447
Vacidity
p2448
tp2449
a(VGoogle
p2450
Vsearch
p2451
tp2452
a(Vmodern
p2453
Vstyle
p2454
tp2455
a(Vold
p2456
VBarolo
p2457
tp2458
a(Vcell
p2459
Vphones
p2460
tp2461
a(Vsecond
p2462
Vmonitor
p2463
tp2464
a(VFrat
p2465
Vboy
p2466
tp2467
a(Vtoolbar
p2468
Vcustomization
p2469
tp2470
a(Vblack
p2471
Vspot
p2472
tp2473
a(VElderly
p2474
Vwoman
p2475
tp2476
a(Vwell
p2477
Vpresented
p2478
tp2479
a(Vdownloads
p2480
Vcomplete
p2481
tp2482
a(VIn
p2483
Vfact
p2484
tp2485
a(VOne
p2486
Vhundred
p2487
tp2488
a(VAfter
p2489
Vinstalling
p2490
tp2491
a(VThe
p2492
VDirectors
p2493
tp2494
a(VThe
p2495
VTale
p2496
tp2497
a(Vbumped
p2498
Vinto
p2499
tp2500
a(Vcontext
p2501
Vmenu
p2502
tp2503
a(Vus
p2504
Veasily
p2505
tp2506
a(Van
p2507
Vabortion
p2508
tp2509
a(Van
p2510
Vavocado
p2511
tp2512
a(Vquite
p2513
Vfirm
p2514
tp2515
a(Vpinot
p2516
Vfruit
p2517
tp2518
a(Vim
p2519
Vbored
p2520
tp2521
a(VBookmark
p2522
VProperties
p2523
tp2524
a(VYounger
p2525
Vwoman
p2526
tp2527
a(g1740
VAs
p2528
tp2529
a(Vover
p2530
Vloudspeaker
p2531
tp2532
a(Vlong
p2533
Vterm
p2534
tp2535
a(VMy
p2536
Vliege
p2537
tp2538
a(VProfile
p2539
VManager
p2540
tp2541
a(Vbad
p2542
Vnews
p2543
tp2544
a(Vstyle
p2545
Vsheet
p2546
tp2547
a(Vgotta
p2548
Vfigure
p2549
tp2550
a(Vr
p2551
g1765
tp2552
a(Vslows
p2553
Vdown
p2554
tp2555
a(Vsomeone
p2556
Velse
p2557
tp2558
a(Vtheir
p2559
Vheads
p2560
tp2561
a(Vmouse
p2562
Vpointer
p2563
tp2564
a(VSecurity
p2565
Vwarning
p2566
tp2567
a(VSort
p2568
Vby
p2569
tp2570
a(Vlarger
p2571
Vthan
p2572
tp2573
a(VRight
p2574
VClick
p2575
tp2576
a(Vvery
p2577
Vstylish
p2578
tp2579
a(Vinstaller
p2580
Vbuilds
p2581
tp2582
a(Vjoin
p2583
Vus
p2584
tp2585
a(Vchrome
p2586
Vdirectory
p2587
tp2588
a(Vyears
p2589
Vyounger
p2590
tp2591
a(Vinstance
p2592
Valready
p2593
tp2594
a(Vlast
p2595
Vnight
p2596
tp2597
a(Vwearing
p2598
Vgreen
p2599
tp2600
a(VPage
p2601
Vreloads
p2602
tp2603
a(Vran
p2604
Vaway
p2605
tp2606
a(VPoint
p2607
VNot
p2608
tp2609
a(Vhee
p2610
Vha
p2611
tp2612
a(Vtext
p2613
Vlabels
p2614
tp2615
a(VVery
p2616
Vclassy
p2617
tp2618
a(Vfile
p2619
Vtypes
p2620
tp2621
a(Vlarge
p2622
Vfonts
p2623
tp2624
a(VWhite
p2625
Vbread
p2626
tp2627
a(Vtype
p2628
Vahead
p2629
tp2630
a(VSouthern
p2631
Vwoman
p2632
tp2633
a(VExtension
p2634
VManager
p2635
tp2636
a(VSpare
p2637
Vsome
p2638
tp2639
a(VCustomize
p2640
VToolbar
p2641
tp2642
a(Vhaving
p2643
Vtrouble
p2644
tp2645
a(Vrather
p2646
Voxidised
p2647
tp2648
a(Vflash
p2649
Vcontent
p2650
tp2651
a(Vuser
p2652
Vprofiles
p2653
tp2654
a(Vmight
p2655
Vimprove
p2656
tp2657
a(Vcrying
p2658
Vson
p2659
tp2660
a(Vpasting
p2661
Vinto
p2662
tp2663
a(Vbigger
p2664
Vthan
p2665
tp2666
a(Vtotally
p2667
Vagree
p2668
tp2669
a(VPearl
p2670
Vcrew
p2671
tp2672
a(Vearly
p2673
Vdrinking
p2674
tp2675
a(Vgay
p2676
Vporn
p2677
tp2678
a(Vslim
p2679
Vbuild
p2680
tp2681
a(VMiddle
p2682
VEast
p2683
tp2684
a(Vsubstantial
p2685
Vwine
p2686
tp2687
a(VHa
p2688
Vha
p2689
tp2690
a(Vblows
p2691
Voff
p2692
tp2693
a(Vrole
p2694
Vas
p2695
tp2696
a(VMuch
p2697
Vmore
p2698
tp2699
a(Vahead
p2700
Vfind
p2701
tp2702
a(VIndian
p2703
Vmom
p2704
tp2705
a(Vdual
p2706
Vhead
p2707
tp2708
a(Varrow
p2709
g2165
tp2710
a(Vtree
p2711
Vview
p2712
tp2713
a(VSearch
p2714
VBar
p2715
tp2716
a(VWeb
p2717
VSearch
p2718
tp2719
a(VAge
p2720
Vopen
p2721
tp2722
a(Vservices
p2723
Vmanager
p2724
tp2725
a(VAbout
p2726
VDialog
p2727
tp2728
a(VWhite
p2729
Vtrash
p2730
tp2731
a(Vinstalling
p2732
VFlash
p2733
tp2734
a(VOptions
p2735
VDialog
p2736
tp2737
a(Vinput
p2738
Vfield
p2739
tp2740
a(VGood
p2741
Vluck
p2742
tp2743
a(VStop
p2744
Vcalling
p2745
tp2746
a(VDouble
p2747
Vclicking
p2748
tp2749
a(VAnyone
p2750
Vwanna
p2751
tp2752
a(Vversion
p2753
Vstring
p2754
tp2755
a(Vsome
p2756
Vtannin
p2757
tp2758
a(Vusername
p2759
Vfield
p2760
tp2761
a(Vanother
p2762
Vstar
p2763
tp2764
a(Vgz
p2765
Vfile
p2766
tp2767
a(Vwav
p2768
Vfile
p2769
tp2770
a(Vhovering
p2771
Vover
p2772
tp2773
a(Vquite
p2774
Vtannic
p2775
tp2776
a(VFind
p2777
VToolbar
p2778
tp2779
a(Vkeeps
p2780
Vgetting
p2781
tp2782
a(Vstatus
p2783
Vbar
p2784
tp2785
a(Vi
p2786
Vcouldnt
p2787
tp2788
a(Vform
p2789
Vfields
p2790
tp2791
a(Vsmarter
p2792
Vthan
p2793
tp2794
a(Vcommand
p2795
Vline
p2796
tp2797
a(Vwhite
p2798
Vbitches
p2799
tp2800
a(VPleasant
p2801
Venough
p2802
tp2803
a(Vfreezes
p2804
Vduring
p2805
tp2806
a(Vcalm
p2807
Vdown
p2808
tp2809
a(Veffect
p2810
Vuntil
p2811
tp2812
a(Ventire
p2813
Vlife
p2814
tp2815
a(Verror
p2816
Vmessage
p2817
tp2818
a(Vtoo
p2819
Vnarrow
p2820
tp2821
a(Vmaking
p2822
Vlocal
p2823
tp2824
a(VForm
p2825
Vautocomplete
p2826
tp2827
a(VAged
p2828
Vwoman
p2829
tp2830
a(Vscroll
p2831
Vwheel
p2832
tp2833
a(VGood
p2834
Vintensity
p2835
tp2836
a(Vcontent
p2837
Varea
p2838
tp2839
a(VAdd
p2840
VBookmark
p2841
tp2842
a(Vstandard
p2843
VWindows
p2844
tp2845
a(Vwho
p2846
Vsang
p2847
tp2848
a(VCollege
p2849
Vkid
p2850
tp2851
a(VThink
p2852
Vabout
p2853
tp2854
a(VIndian
p2855
Vchick
p2856
tp2857
a(Vchanging
p2858
Vthemes
p2859
tp2860
a(Vinstalling
p2861
Vextensions
p2862
tp2863
a(Vshort
p2864
Vbus
p2865
tp2866
a(VHistory
p2867
VSidebar
p2868
tp2869
a(VThe
p2870
VLion
p2871
tp2872
a(VAdd
p2873
Vability
p2874
tp2875
a(Vor
p2876
g158
tp2877
a(Vlets
p2878
Vkill
p2879
tp2880
a(Vbookmark
p2881
Vkeywords
p2882
tp2883
a(Vsecond
p2884
Vfloor
p2885
tp2886
a(Vstand
p2887
Vclear
p2888
tp2889
a(Vxml
p2890
Verror
p2891
tp2892
a(Vtyped
p2893
Vaddress
p2894
tp2895
a(Vfew
p2896
Vhours
p2897
tp2898
a(VCannot
p2899
Vdisable
p2900
tp2901
a(Van
p2902
Valcoholic
p2903
tp2904
a(Van
p2905
Voar
p2906
tp2907
a(Vestablishing
p2908
Van
p2909
tp2910
a(Vuh
p2911
Vhuh
p2912
tp2913
a(Vaddress
p2914
Vbar
p2915
tp2916
a(VCashier
p2917
Vchick
p2918
tp2919
a(VThirtysomething
p2920
Vwoman
p2921
tp2922
a(Vdue
p2923
Vmissing
p2924
tp2925
a(Vrubs
p2926
Vher
p2927
tp2928
a(VDrugged
p2929
Vout
p2930
tp2931
a(Vgreyed
p2932
Vout
p2933
tp2934
a(VBookmarks
p2935
g1914
tp2936
a(VToolbar
p2937
Vcustomization
p2938
tp2939
a(Vturns
p2940
Varound
p2941
tp2942
a(VAddress
p2943
Vbar
p2944
tp2945
a(Vrender
p2946
Vproperly
p2947
tp2948
a(Vanything
p2949
Velse
p2950
tp2951
a(Vflash
p2952
Vplugin
p2953
tp2954
a.