(lp0
(Vjesus
p1
Vtrials
p2
Vthrought
p3
tp4
a(VSoftware
p5
VLicense
p6
VAgreement
p7
tp8
a(Vcontact
p9
VDawnstar
p10
VVisit
p11
tp12
a(VIndia
p13
VTrading
p14
VCompany
p15
tp16
a(Vdona
p17
Veis
p18
Vrequiem
p19
tp20
a(VPie
p21
VIesu
p22
Vdomine
p23
tp24
a(VDa
p25
VVinci
p26
VCode
p27
tp28
a(VWorld
p29
VTrade
p30
VCenter
p31
tp32
a(VEmpire
p33
VState
p34
VBuilding
p35
tp36
a(VPrivate
p37
VMessaging
p38
Vothers
p39
tp40
a(VIsla
p41
Vde
p42
VMuerta
p43
tp44
a(VMartin
p45
VLuther
p46
VKing
p47
tp48
a(VHoly
p49
VHand
p50
VGrenade
p51
tp52
a(VLeonardo
p53
Vda
p54
VVinci
p55
tp56
a(VEast
p57
g13
g14
tp58
a(VChocolate
p59
Vmatzoh
p60
Vball
p61
tp62
a(VTony
p63
VDanza
p64
VShow
p65
tp66
a(VYo
p67
Vestoy
p68
Vborracha
p69
tp70
a(Vmatzoh
p71
Vball
p72
Vmagazine
p73
tp74
a(Vbefore
p75
g37
g38
tp76
a(VUpper
p77
VEast
p78
VSide
p79
tp80
a(Vplease
p81
g9
g10
tp82
a(Vlez
p83
Vgurls
p84
Vpm
p85
tp86
a(VSaved
p87
VForm
p88
VInformation
p89
tp90
a(VAirport
p91
Vsecurity
p92
Vguard
p93
tp94
a(Vslow
p95
Vmotion
p96
Vscene
p97
tp98
a(Vdrooling
p99
Vover
p100
Vcounselor
p101
tp102
a(Vclap
p103
Vclap
p104
Vclap
p105
tp106
a(Vsqueak
p107
Vsqueak
p108
Vsqueak
p109
tp110
a(Vdual
p111
Vmonitor
p112
Vsetup
p113
tp114
a(Vsix
p115
Vhour
p116
Vminimum
p117
tp118
a(Vmumble
p119
Vmumble
p120
Vmumble
p121
tp122
a(VAbout
p123
VPopup
p124
VBlocking
p125
tp126
a(VOutlook
p127
VWeb
p128
VAccess
p129
tp130
a(VLocate
p131
VLink
p132
VBrowser
p133
tp134
a(VPoint
p135
VNot
p136
VFound
p137
tp138
a(VIncredibly
p139
VJappy
p140
Vwoman
p141
tp142
a(Vfrom
p143
Vdunkin
p144
Vdonuts
p145
tp146
a(Vcredit
p147
Vcard
p148
Vnumbers
p149
tp150
a(Vclop
p151
Vclop
p152
Vclop
p153
tp154
a(Vbrave
p155
VSir
p156
VRobin
p157
tp158
a(VHeh
p159
Vheh
p160
Vheh
p161
tp162
a(Vla
p163
Vla
p164
Vla
p165
tp166
a(VThe
p167
g63
g64
tp168
a(VLees
p169
Vjust
p170
Vstirred
p171
tp172
a(VMiddle
p173
VEastern
p174
Vowner
p175
tp176
a(Vabout
p177
g1
g2
tp178
a(VClose
p179
VOther
p180
VTabs
p181
tp182
a(VView
p183
VSelection
p184
VSource
p185
tp186
a(Vor
p187
g83
g84
tp188
a(VHealth
p189
Vservices
p190
Vmanager
p191
tp192
a(Vestablishing
p193
Van
p194
Vencrypted
p195
tp196
a(g116
g117
Vwait
p197
tp198
a(VKnights
p199
VWho
p200
VSay
p201
tp202
a(Vtheir
p203
Vfingers
p204
Vthru
p205
tp206
a(VFull
p207
VScreen
p208
Vmode
p209
tp210
a(Vsettle
p211
Vhis
p212
Vdebt
p213
tp214
a(Vmixed
p215
Vfeelings
p216
Vabout
p217
tp218
a(VIsland
p219
Vlaw
p220
Vstudent
p221
tp222
a(VTrust
p223
Vfund
p224
Vgirl
p225
tp226
a(Vtemptations
p227
Vthat
p228
Vpursued
p229
tp230
a(Vuser
p231
Vagent
p232
Vstring
p233
tp234
a(VDeaf
p235
VMalay
p236
Vguy
p237
tp238
a(VDrugged
p239
Vout
p240
Vgangsta
p241
tp242
a(Vbi
p243
g187
g83
tp244
a(VLong
p245
g219
g220
tp246
a(VThe
p247
g25
g26
tp248
a(VStatus
p249
Vbar
p250
Vindicator
p251
tp252
a(Vfired
p253
g143
g144
tp254
a(VKing
p255
VArthur
p256
Vmusic
p257
tp258
a(Vvertical
p259
Vscroll
p260
Vbars
p261
tp262
a(VJunior
p263
Vhigh
p264
Vkid
p265
tp266
a(Vin
p267
VLes
p268
VMis
p269
tp270
a(Vdouses
p271
Va
p272
Vlamp
p273
tp274
a(Vruns
p275
g203
g204
tp276
a(Vunaji
p277
Vis
p278
Veel
p279
tp280
a(VLetters
p281
Vof
p282
VMarque
p283
tp284
a(VNorrington
p285
Vvomits
p286
Vover
p287
tp288
a(Voriginating
p289
VWeb
p290
Vsite
p291
tp292
a(VCash
p293
Vregister
p294
Vguy
p295
tp296
a(Vescape
p297
Vby
p298
Vlongboat
p299
tp300
a(VSet
p301
VDefault
p302
VBrowser
p303
tp304
a(Vleaving
p305
g167
g63
tp306
a(Vroom
p307
g75
g37
tp308
a(Vwe
p309
Vw
p310
Vere
p311
tp312
a(Van
p313
Vexpress
p314
Vbound
p315
tp316
a(Vboom
p317
Vboom
p318
Vboom
p319
tp320
a(Vroom
p321
g81
g9
tp322
a(g2
g3
Vthe
p323
tp324
a(VStatue
p325
Vof
p326
VLiberty
p327
tp328
a(Vsaw
p329
Vsaw
p330
Vsaw
p331
tp332
a(Vfull
p333
Vscreen
p334
Vmode
p335
tp336
a(Vthe
p337
Vvon
p338
VTrapps
p339
tp340
a(g310
g311
Vjust
p341
tp342
a(Vseeing
p343
Veye
p344
Vdog
p345
tp346
a(VSave
p347
VImage
p348
VAs
p349
tp350
a(VFull
p351
Vscreen
p352
Vmode
p353
tp354
a(VEastern
p355
VEuropean
p356
Vgirl
p357
tp358
a(VSave
p359
VLink
p360
VAs
p361
tp362
a(Vcourt
p363
Vat
p364
VCamelot
p365
tp366
a(Vthe
p367
VUnited
p368
VStates
p369
tp370
a(g3
g323
Vdesert
p371
tp372
a(Vfind
p373
Vour
p374
Vrules
p375
tp376
a(Vmaking
p377
Vlocal
p378
Vstops
p379
tp380
a(Vand
p381
Vgently
p382
Vkisses
p383
tp384
a(Vlong
p385
Vterm
p386
Vrelationship
p387
tp388
a(VVery
p389
Vpreppy
p390
Vchick
p391
tp392
a(Vquiet
p393
Vnights
p394
Vat
p395
tp396
a(Vcloses
p397
Vtheir
p398
Veyes
p399
tp400
a(g194
g195
Vconnection
p401
tp402
a(VView
p403
VPage
p404
VSource
p405
tp406
a(VThe
p407
VLate
p408
VShow
p409
tp410
a(Vtwo
p411
Vcannibal
p412
Vwomen
p413
tp414
a(VBridge
p415
Vof
p416
VDeath
p417
tp418
a(Vca
p419
Vn't
p420
Vwait
p421
tp422
a(VBelligerent
p423
Vwhite
p424
Vwoman
p425
tp426
a(Vthe
p427
g33
g34
tp428
a(VNew
p429
VYork
p430
VCity
p431
tp432
a(VThanks
p433
Vfor
p434
Vjoining
p435
tp436
a(V.. .
p437
Vthis
p438
Vsong
p439
tp440
a(VStill
p441
Vquite
p442
Vtannic
p443
tp444
a(Vincrease
p445
Vtext
p446
Vsize
p447
tp448
a(VError
p449
Vlaunching
p450
Vbrowser
p451
tp452
a(VBlind
p453
Vdate
p454
Vboy
p455
tp456
a(g438
g439
Vlasts
p457
tp458
a(VGhetto
p459
Vhigh
p460
Vschool
p461
tp462
a(VNot
p463
VRated
p464
VFrom
p465
tp466
a(VSave
p467
VPage
p468
VAs
p469
tp470
a(Vpeeing
p471
Vin
p472
Vurinal
p473
tp474
a(VNew
p475
VYork
p476
VTimes
p477
tp478
a(Vpast
p479
Vits
p480
Vbest
p481
tp482
a(g272
Vdrug
p483
Vdealer
p484
tp485
a(VHard
p486
Vto
p487
Vstarboard
p488
tp489
a(Vok
p490
Vwho
p491
Vsang
p492
tp493
a(g96
g97
Vof
p494
tp495
a(Vtalking
p496
g177
g1
tp497
a(VSpare
p498
Vsome
p499
Vchange
p500
tp501
a(VBookmarks
p502
VToolbar
p503
VFolder
p504
tp505
a(VWalk
p506
Vor
p507
Vdie
p508
tp509
a(Vtar
p510
Vand
p511
Vroses
p512
tp513
a(Vrefused
p514
Vwhen
p515
Vattempting
p516
tp517
a(VWall
p518
VStreet
p519
Vguy
p520
tp521
a(VBlack
p522
VPearl
p523
Vcrew
p524
tp525
a(VPrint
p526
VPreview
p527
Vtoolbar
p528
tp529
a(Vtimes
p530
g437
g438
tp531
a(Vwith
p532
Vsimilar
p533
Vinterests
p534
tp535
a(Vhee
p536
Vha
p537
Vha
p538
tp539
a(Vhurry
p540
Vto
p541
Vconsume
p542
tp543
a(VLadies
p544
Vand
p545
Vgentlemen
p546
tp547
a(Vsense
p548
Vof
p549
Vhumour
p550
tp551
a(Vthe
p552
Vstuffin'
p553
Voutta
p554
tp555
a(Vof
p556
Vsocial
p557
Vstudies
p558
tp559
a(VReally
p560
Vtrendy
p561
Vgirl
p562
tp563
a(Vfew
p564
Vyears
p565
Vago
p566
tp567
a(VMind
p568
Vthe
p569
Vboat
p570
tp571
a(g311
g341
g496
tp572
a(Vhug
p573
g552
g553
tp574
a(Vaged
p575
VItalian
p576
Vman
p577
tp578
a(Van
p579
Vice
p580
Vcream
p581
tp582
a(V've
p583
Vnever
p584
Vseen
p585
tp586
a(Vperson
p587
Vsitting
p588
Vnext
p589
tp590
a(Vthe
p591
VRound
p592
VTable
p593
tp594
a(Vcrowd
p595
Vof
p596
Vcannibals
p597
tp598
a(Vwash
p599
Vyour
p600
Vhands
p601
tp602
a(Vusernames
p603
Vand
p604
Vpasswords
p605
tp606
a(Vspare
p607
Vsome
p608
Vchange
p609
tp610
a(VLong
p611
VIsland
p612
Vwoman
p613
tp614
a(Vpage
p615
Vfinishes
p616
Vloading
p617
tp618
a(Vcurrent
p619
Vsession
p620
Vonly
p621
tp622
a(Vsome
p623
Vice
p624
Vcream
p625
tp626
a(Vhas
p627
Vbeen
p628
Vplayed
p629
tp630
a(VBookmark
p631
VToolbar
p632
VFolder
p633
tp634
a(Vthe
p635
Vmonkey
p636
Vchatters
p637
tp638
a(VTale
p639
Vof
p640
VSir
p641
tp642
a(VCan
p643
Vanyone
p644
Vspare
p645
tp646
a(Vglass
p647
Vof
p648
Vpoison
p649
tp650
a(Vlistening
p651
Vto
p652
V; ..
p653
tp654
a(Vhad
p655
Van
p656
Vabortion
p657
tp658
a(Vjar
p659
Vof
p660
Vdirt
p661
tp662
a(Vcontains
p663
Vno
p664
Vdata
p665
tp666
a(g272
VPuerto
p667
VRican
p668
tp669
a(Vthe
p670
Vfootball
p671
Vteam
p672
tp673
a(g272
Vkosher
p674
Vsymbol
p675
tp676
a(g374
g375
Vat
p677
tp678
a(g272
VMets
p679
Vfan
p680
tp681
a(VHa
p682
Vha
p683
Vha
p684
tp685
a(Vhot
p686
Vsexy
p687
Vguys
p688
tp689
a(g240
g241
Vkid
p690
tp691
a(VIn
p692
Vfull
p693
Vscreen
p694
tp695
a(VStand
p696
Vclear
p697
Vof
p698
tp699
a(Vspeak
p700
Vgood
p701
VEnglish
p702
tp703
a(Vso
p704
Vhard
p705
Vcore
p706
tp707
a(Vwill
p708
Vprobably
p709
Vimprove
p710
tp711
a(Vlovely
p712
Vripe
p713
Vfruit
p714
tp715
a(g84
g85
Vme
p716
tp717
a(Vif
p718
Vu
p719
Vtryin
p720
tp721
a(g272
Vcoconut
p722
Vpalm
p723
tp724
a(Vthe
p725
VFlying
p726
VDutchman
p727
tp728
a(VAdd
p729
VBookmark
p730
VDialog
p731
tp732
a(Vsword
p733
Vis
p734
Vthrown
p735
tp736
a(Vleft
p737
Vhand
p738
Vside
p739
tp740
a(Vprofessor
p741
g556
g557
tp742
a(Vswitching
p743
Vbetween
p744
Vtabs
p745
tp746
a(Vmain
p747
g307
g75
tp748
a(Vand
p749
Vcontributor
p750
Vinformation
p751
tp752
a(Vwith
p753
VFrench
p754
Vaccent
p755
tp756
a(Vnext
p757
Vfew
p758
Vyears
p759
tp760
a(Vanyone
p761
Vwanna
p762
Vchat
p763
tp764
a(Van
p765
Vodd
p766
Vbottle
p767
tp768
a(VPage
p769
VInfo
p770
Vdialog
p771
tp772
a(Vhorse
p773
Vand
p774
Vcarriage
p775
tp776
a(VPintel
p777
Vand
p778
VRagetti
p779
tp780
a(VHigh
p781
Vschool
p782
Vgirl
p783
tp784
a(Vcopy
p785
Vlink
p786
Vlocation
p787
tp788
a(VMouse
p789
Vwheel
p790
Vdoesn
p791
tp792
a(Vthe
p793
Vbamboo
p794
Vpole
p795
tp796
a(g272
Vlap
p797
Vdance
p798
tp799
a(Vladies
p800
Vwanna
p801
Vchat
p802
tp803
a(VAs
p804
VYou
p805
VType
p806
tp807
a(VGod
p808
VSquad
p809
Vguy
p810
tp811
a(Vmiddle
p812
Vmouse
p813
Vbutton
p814
tp815
a(Vwindow
p816
Vloses
p817
Vfocus
p818
tp819
a(VDeaf
p820
Vgay
p821
Vguy
p822
tp823
a(Vyears
p824
Volder
p825
Vthan
p826
tp827
a(Vyour
p828
Vass
p829
Vwhipped
p830
tp831
a(g394
g395
Vhome
p832
tp833
a(Vgirls
p834
Vwanna
p835
Vchat
p836
tp837
a(VShould
p838
Vbe
p839
Vable
p840
tp841
a(g687
g688
Vwanna
p842
tp843
a(Vshould
p844
Vstay
p845
Vchecked
p846
tp847
a(V's
p848
Vmy
p849
VMusic
p850
tp851
a(Vwanna
p852
Vchat
p853
Vpm
p854
tp855
a(Vno
p856
Vlonger
p857
Vworks
p858
tp859
a(Vha
p860
Vha
p861
Vha
p862
tp863
a(g204
g205
Vthe
p864
tp865
a(Von
p866
Vsecondary
p867
Vmonitor
p868
tp869
a(Vgoogle
p870
Vsearch
p871
Vbox
p872
tp873
a(Vand
p874
Vquiet
p875
Vnights
p876
tp877
a(Vcanada
p878
Vpm
p879
Vme
p880
tp881
a(Vin
p882
g207
g208
tp883
a(VOf
p884
Vcourse
p885
Vhe
p886
tp887
a(Vguys
p888
Vwanna
p889
Vchat
p890
tp891
a(Vselling
p892
Vcandy
p893
Vfor
p894
tp895
a(Vspare
p896
Vany
p897
Vfood
p898
tp899
a(V'm
p900
Voutta
p901
Vhere
p902
tp903
a(Vis
p904
Vextremely
p905
Vslow
p906
tp907
a(VPleasant
p908
Vold
p909
Vthing
p910
tp911
a(Vsmells
p912
Vlike
p913
Vpiss
p914
tp915
a(Vof
p916
VDavy
p917
VJones
p918
tp919
a(Vkicked
p920
Vhis
p921
Vass
p922
tp923
a(Vnigger
p924
Vis
p925
Vclear
p926
tp927
a(Vdisable
p928
Vpassword
p929
Vmanager
p930
tp931
a(Vyour
p932
Vfavorite
p933
Vcolor
p934
tp935
a(Vgotta
p936
Vfigure
p937
Vout
p938
tp939
a(VAddress
p940
Vbar
p941
Vautocomplete
p942
tp943
a(VHot
p944
Vdog
p945
Vguy
p946
tp947
a(Vthe
p948
VHoly
p949
VGrail
p950
tp951
a(Vsteals
p952
Vfocus
p953
Vfrom
p954
tp955
a(Vstops
p956
Vresponding
p957
Vwhen
p958
tp959
a(VWelcome
p960
Vto
p961
V#talkcity_adults
p962
tp963
a(Vit
p964
VGrand
p965
VCentral
p966
tp967
a(Vaerial
p968
Vview
p969
Vof
p970
tp971
a(Vthe
p972
VEast
p973
VIndia
p974
tp975
a(Vany
p976
Vfemales
p977
Vwant
p978
tp979
a(Vnot
p980
g892
g893
tp981
a(g434
g435
Vus
p982
tp983
a(VOld
p984
Vlady
p985
g305
tp986
a(Vthe
p987
g77
g78
tp988
a(g272
Vmorning
p989
Vrubber
p990
tp991
a(VAs
p992
Vsoon
p993
Vas
p994
tp995
a(Vdrop
p996
Vdown
p997
Vlist
p998
tp999
a(Vfemale
p1000
Vfor
p1001
Vfriendship
p1002
tp1003
a(Vall
p1004
Vdownloads
p1005
Vcomplete
p1006
tp1007
a(Vhow
p1008
Vr
p1009
g719
tp1010
a(Vmale
p1011
Vor
p1012
Vfemale
p1013
tp1014
a(Vletters
p1015
Vand
p1016
Vnumbers
p1017
tp1018
a(g450
g451
Vwindow
p1019
tp1020
a(VAdd
p1021
VBookmark
p1022
Vdialog
p1023
tp1024
a(Van
p1025
Vxml
p1026
Verror
p1027
tp1028
a(g272
Vcritical
p1029
Vupdate
p1030
tp1031
a(Vi
p1032
Vca
p1033
Vn't
p1034
tp1035
a(Vincorrect
p1036
Vbehaviour
p1037
Vwith
p1038
tp1039
a(Vany
p1040
g686
g687
tp1041
a(Vchat
p1042
g321
g81
tp1043
a(Vcreate
p1044
Vnew
p1045
Vprofile
p1046
tp1047
a(Vneeds
p1048
Vits
p1049
Vown
p1050
tp1051
a(Vtext
p1052
Vinput
p1053
Vfield
p1054
tp1055
a(VSave
p1056
VAs
p1057
Vdialog
p1058
tp1059
a(Vthe
p1060
Vscuttled
p1061
Vship
p1062
tp1063
a(VKnights
p1064
Vof
p1065
VNi
p1066
tp1067
a(g644
g645
Vsome
p1068
tp1069
a(Vprint
p1070
Vpreview
p1071
Vtoolbar
p1072
tp1073
a(VLauncelot
p1074
Vof
p1075
VCamelot
p1076
tp1077
a(VLink
p1078
Vto
p1079
VDisk
p1080
tp1081
a(Vdrinking
p1082
Vvery
p1083
Vnicely
p1084
tp1085
a(VAbout
p1086
VMozilla
p1087
VFirebird
p1088
tp1089
a(VGet
p1090
Vnew
p1091
Vextensions
p1092
tp1093
a(Vcontext
p1094
Vmenu
p1095
Vitem
p1096
tp1097
a(Vfrom
p1098
Vother
p1099
Vapplications
p1100
tp1101
a(Vfind
p1102
Vsomeone
p1103
Velse
p1104
tp1105
a(Vfix
p1106
Vfor
p1107
Vbug
p1108
tp1109
a(Vwork
p1110
Vas
p1111
Vexpected
p1112
tp1113
a(Vintensity
p1114
Vand
p1115
Vlength
p1116
tp1117
a(VBack
p1118
Vand
p1119
VForward
p1120
tp1121
a(Vthe
p1122
VEast
p1123
VVillage
p1124
tp1125
a(Vhave
p1126
Vany
p1127
Vplans
p1128
tp1129
a(Vsay
p1130
Vanything
p1131
Velse
p1132
tp1133
a(VHow
p1134
Vmany
p1135
Vtimes
p1136
tp1137
a(g272
Vlarge
p1138
Vtrout
p1139
tp1140
a(Vseek
p1141
Vthe
p1142
VHoly
p1143
tp1144
a(Vview
p1145
Vpage
p1146
Vsource
p1147
tp1148
a(Vpersonal
p1149
Vtoolbar
p1150
Vfolder
p1151
tp1152
a(Vafter
p1153
Vinstalling
p1154
Vextensions
p1155
tp1156
a(Vthe
p1157
VSouth
p1158
VBronx
p1159
tp1160
a(Vsong
p1161
g627
g628
tp1162
a(g290
g291
Vonly
p1163
tp1164
a(VFrom
p1165
g272
Vhalf
p1166
tp1167
a(Vladies
p1168
Vand
p1169
Vgentlemen
p1170
tp1171
a(Vt
p1172
Vspeak
p1173
VSpanish
p1174
tp1175
a(Vthe
p1176
Vcage
p1177
Vrolls
p1178
tp1179
a(VJack
p1180
Vpicks
p1181
Vup
p1182
tp1183
a(Vyour
p1184
Vown
p1185
Vgame
p1186
tp1187
a(Vve
p1188
Valways
p1189
Vwanted
p1190
tp1191
a(Von
p1192
Vframed
p1193
Vpages
p1194
tp1195
a(Vrunning
p1196
Vwindow
p1197
Vfound
p1198
tp1199
a(Vclick
p1200
Vcontext
p1201
Vmenu
p1202
tp1203
a(VNew
p1204
VYorkers
p1205
Vare
p1206
tp1207
a(g272
Vsocial
p1208
Vworker
p1209
tp1210
a(Vso
p1211
Vmuch
p1212
Veasier
p1213
tp1214
a(VOpen
p1215
Vin
p1216
VTabs
p1217
tp1218
a(Vagainst
p1219
Vthe
p1220
Vwall
p1221
tp1222
a(Vnames
p1223
Vand
p1224
g1015
tp1225
a(Vcouple
p1226
Vof
p1227
Vhours
p1228
tp1229
a(Vhas
p1230
Vno
p1231
Veffect
p1232
tp1233
a(VAt
p1234
Vleast
p1235
Vhe
p1236
tp1237
a(Vsuck
p1238
Vmy
p1239
Vdick
p1240
tp1241
a(Vthrough
p1242
g272
Vspyglass
p1243
tp1244
a(Vve
p1245
Vbeen
p1246
Vthinking
p1247
tp1248
a(Vhangs
p1249
Vwhen
p1250
Vaccessing
p1251
tp1252
a(Vtelling
p1253
Vthe
p1254
Vtruth
p1255
tp1256
a(Vbinding
p1257
Vfor
p1258
Vbrowser
p1259
tp1260
a(Vto
p1261
VConey
p1262
VIsland
p1263
tp1264
a(Vfrom
p1265
VLong
p1266
VIsland
p1267
tp1268
a(g228
g229
Vhim
p1269
tp1270
a(Vjust
p1271
Vgot
p1272
Vengaged
p1273
tp1274
a(VThis
p1275
Vpage
p1276
Vrenders
p1277
tp1278
a(Vkeyboard
p1279
Vshortcut
p1280
Vfor
p1281
tp1282
a(Vany
p1283
Vguys
p1284
Vwanna
p1285
tp1286
a(Vby
p1287
Vany
p1288
Vchance
p1289
tp1290
a(VAbout
p1291
VMozilla
p1292
VFirefox
p1293
tp1294
a(Vwhen
p1295
Vhovering
p1296
Vover
p1297
tp1298
a(Vhot
p1299
Vgirls
p1300
Vwanna
p1301
tp1302
a(Vusing
p1303
Vinstall
p1304
Voption
p1305
tp1306
a(Vin
p1307
VCentral
p1308
VPark
p1309
tp1310
a(g460
g461
Vgirl
p1311
tp1312
a(Vmy
p1313
Vrole
p1314
Vas
p1315
tp1316
a(VLong
p1317
VIsland
p1318
Vgirl
p1319
tp1320
a(Vwelcome
p1321
Vto
p1322
V#talkcity_adults
p1323
tp1324
a(Vnot
p1325
Vrendered
p1326
Vproperly
p1327
tp1328
a(g272
Vmotherfucking
p1329
Vjob
p1330
tp1331
a(Vthe
p1332
Vliquor
p1333
Vstore
p1334
tp1335
a(VOh
p1336
Vmy
p1337
Vgosh
p1338
tp1339
a(Vthe
p1340
g289
g290
tp1341
a(Vin
p1342
VPrint
p1343
VPreview
p1344
tp1345
a(VOld
p1346
VChinese
p1347
Vlady
p1348
tp1349
a(VWoman
p1350
Vholding
p1351
Vbaby
p1352
tp1353
a(VOld
p1354
VJewish
p1355
Vlady
p1356
tp1357
a(g985
g305
g167
tp1358
a(Vguys
p1359
Vwanna
p1360
Vtalk
p1361
tp1362
a(VMy
p1363
Vlast
p1364
Vbottle
p1365
tp1366
a(Vmake
p1367
Vany
p1368
Vsense
p1369
tp1370
a(Vbegins
p1371
Vto
p1372
Vwalk
p1373
tp1374
a(Vas
p1375
Vsoon
p1376
Vas
p1377
tp1378
a(Vve
p1379
Vever
p1380
Vseen
p1381
tp1382
a(Vscreaming
p1383
Vinto
p1384
Vcell
p1385
tp1386
a(Vyear
p1387
Vor
p1388
Vtwo
p1389
tp1390
a(VOh
p1391
Vmy
p1392
Vgod
p1393
tp1394
a(Vafter
p1395
Vdeleting
p1396
Vbookmark
p1397
tp1398
a(Vstaring
p1399
Vat
p1400
Vhim
p1401
tp1402
a(g720
Vto
p1403
Vchat
p1404
tp1405
a(Vhot
p1406
g888
g889
tp1407
a(Vhis
p1408
Vleft
p1409
Vhand
p1410
tp1411
a(Vam
p1412
Vyour
p1413
Vking
p1414
tp1415
a(Vcheck
p1416
Vthe
p1417
Vweather
p1418
tp1419
a(Vmy
p1420
Ventire
p1421
Vlife
p1422
tp1423
a(g272
g115
g116
tp1424
a(Vany
p1425
g834
g835
tp1426
a(Veat
p1427
Vdog
p1428
Vshit
p1429
tp1430
a(g1032
Vgot
p1431
g253
tp1432
a(Vve
p1433
Vnever
p1434
Vseen
p1435
tp1436
a(Vleave
p1437
Vme
p1438
Valone
p1439
tp1440
a(VDrunk
p1441
VJersey
p1442
Vgirl
p1443
tp1444
a(Vbottle
p1445
Vof
p1446
Vrum
p1447
tp1448
a(g272
Vsingle
p1449
Vparent
p1450
tp1451
a(Vany
p1452
g1406
g888
tp1453
a(Vany
p1454
g1299
g1300
tp1455
a(VOf
p1456
Vcourse
p1457
Vyou
p1458
tp1459
a(Vchanging
p1460
Vhome
p1461
Vpage
p1462
tp1463
a(Vshampoo
p1464
Vand
p1465
Vthen
p1466
tp1467
a(Vgot
p1468
Vfired
p1469
Vfrom
p1470
tp1471
a(VPassword
p1472
VManager
p1473
Vdoes
p1474
tp1475
a(VBring
p1476
Vout
p1477
Vyour
p1478
tp1479
a(Vfor
p1480
Vearly
p1481
Vdrinking
p1482
tp1483
a(VFind
p1484
g804
g805
tp1485
a(Vve
p1486
Vnever
p1487
Vbeen
p1488
tp1489
a(Vfigure
p1490
Vout
p1491
Vhow
p1492
tp1493
a(VDo
p1494
Vthis
p1495
Vautomatically
p1496
tp1497
a(g272
Vvideo
p1498
Vgame
p1499
tp1500
a(Vmouse
p1501
Vwheel
p1502
Vdoes
p1503
tp1504
a(Vaddress
p1505
Vbar
p1506
Vdrop
p1507
tp1508
a(Von
p1509
Vsecond
p1510
Vmonitor
p1511
tp1512
a(Vtouch
p1513
Vof
p1514
Vvolatility
p1515
tp1516
a(VThe
p1517
g639
g640
tp1518
a(VSome
p1519
Vwill
p1520
Vsay
p1521
tp1522
a(Vstatus
p1523
Vbar
p1524
Vtext
p1525
tp1526
a(VTo
p1527
Vseek
p1528
Vthe
p1529
tp1530
a(VSir
p1531
g1074
g1075
tp1532
a(Vdrop
p1533
Vdown
p1534
Vhistory
p1535
tp1536
a(Vm
p1537
Vpretty
p1538
Vsure
p1539
tp1540
a(g250
g251
Vfor
p1541
tp1542
a(VAre
p1543
Vyou
p1544
Vkidding
p1545
tp1546
a(Vstart
p1547
Vcalling
p1548
Vyour
p1549
tp1550
a(g272
Vfew
p1551
Vweeks
p1552
tp1553
a(Vusername
p1554
Vand
p1555
Vpassword
p1556
tp1557
a(Vdrag
p1558
Vand
p1559
Vdrop
p1560
tp1561
a(VWill
p1562
Vis
p1563
Vcarried
p1564
tp1565
a(Vadd
p1566
Vbookmark
p1567
Vdialog
p1568
tp1569
a(Vas
p1570
Van
p1571
Vindividual
p1572
tp1573
a(Vd
p1574
Vbe
p1575
Vinterested
p1576
tp1577
a(g719
g720
g1403
tp1578
a(Vwhen
p1579
g743
g744
tp1580
a(g272
g343
g344
tp1581
a(Vfor
p1582
Vlong
p1583
Vterm
p1584
tp1585
a(VAs
p1586
Vlong
p1587
Vas
p1588
tp1589
a(Vdeleting
p1590
Vbookmark
p1591
Vfrom
p1592
tp1593
a(VNeeds
p1594
g272
Vfew
p1595
tp1596
a(Vsave
p1597
Vimage
p1598
Vas
p1599
tp1600
a(Vparsing
p1601
Verror
p1602
Vwhen
p1603
tp1604
a(VOverheard
p1605
Vin
p1606
VNew
p1607
tp1608
a(Vhooking
p1609
Vup
p1610
Vwith
p1611
tp1612
a(Vdialog
p1613
Vpops
p1614
Vup
p1615
tp1616
a(Vhad
p1617
Vno
p1618
Vchoice
p1619
tp1620
a(Vsuch
p1621
Vthing
p1622
Vas
p1623
tp1624
a(g272
Vdrag
p1625
Vqueen
p1626
tp1627
a(Vstanding
p1628
Vin
p1629
Vfront
p1630
tp1631
a(Vhas
p1632
Vno
p1633
Vproperties
p1634
tp1635
a(Vpleasure
p1636
Vto
p1637
Vdrink
p1638
tp1639
a(Vcouple
p1640
Vof
p1641
Vyears
p1642
tp1643
a(Vback
p1644
Vand
p1645
Vforth
p1646
tp1647
a(VDrag
p1648
Vand
p1649
Vdrop
p1650
tp1651
a(Vset
p1652
Vto
p1653
Vfalse
p1654
tp1655
a(Vfrom
p1656
VNew
p1657
VJersey
p1658
tp1659
a(g272
Vfive
p1660
Vdollar
p1661
tp1662
a(Vhas
p1663
Van
p1664
Vawesome
p1665
tp1666
a(VStarting
p1667
Vto
p1668
Vdrink
p1669
tp1670
a(VLook
p1671
Vat
p1672
Vthese
p1673
tp1674
a(Vsank
p1675
Vinto
p1676
Vthe
p1677
tp1678
a(g272
Vcomedy
p1679
Vshow
p1680
tp1681
a(g272
Vhundred
p1682
Vdollars
p1683
tp1684
a(Vfor
p1685
Vfive
p1686
Vminutes
p1687
tp1688
a(VThink
p1689
Vabout
p1690
Vit
p1691
tp1692
a(g853
g854
Vme
p1693
tp1694
a(g1496
Vfor
p1695
Vfiles
p1696
tp1697
a(Vwere
p1698
Vstill
p1699
Vdrinking
p1700
tp1701
a(Vdid
p1702
Vwe
p1703
Vlose
p1704
tp1705
a(Vprevents
p1706
VFirefox
p1707
Vfrom
p1708
tp1709
a(Vthe
p1710
Vemergency
p1711
Vroom
p1712
tp1713
a(Vthe
p1714
Vclosing
p1715
Vdoors
p1716
tp1717
a(Vwas
p1718
Vjust
p1719
Vwondering
p1720
tp1721
a(Vshould
p1722
Vbe
p1723
Vresizable
p1724
tp1725
a(Vcannot
p1726
Vbe
p1727
Vclosed
p1728
tp1729
a(g272
Vdead
p1730
Vanimal
p1731
tp1732
a(Vdll
p1733
Vnot
p1734
Vfound
p1735
tp1736
a(Vlove
p1737
VNew
p1738
VYork
p1739
tp1740
a(g272
Vfew
p1741
Vmonths
p1742
tp1743
a(Vtastes
p1744
Vso
p1745
Vgood
p1746
tp1747
a(VThunderbird
p1748
Vis
p1749
Vrunning
p1750
tp1751
a(Vaddress
p1752
Vbar
p1753
Vhistory
p1754
tp1755
a(Vwhat
p1756
Vhappened
p1757
Vlast
p1758
tp1759
a(Vno
p1760
Vsuch
p1761
Vthing
p1762
tp1763
a(VCan
p1764
Vyou
p1765
Vspare
p1766
tp1767
a(Vfrom
p1768
Vfull
p1769
Vscreen
p1770
tp1771
a(Vhad
p1772
Vthis
p1773
Vdream
p1774
tp1775
a(g464
g465
g272
tp1776
a(Vdownload
p1777
Vmanager
p1778
Vhistory
p1779
tp1780
a(Vwindows
p1781
Vopened
p1782
Vby
p1783
tp1784
a(Vthe
p1785
Vice
p1786
Vcream
p1787
tp1788
a(Vmy
p1789
g363
g364
tp1790
a(V'm
p1791
g651
g652
tp1792
a(g272
Vbit
p1793
Vvolatile
p1794
tp1795
a(VDownload
p1796
VManager
p1797
Vwindow
p1798
tp1799
a(Vmight
p1800
Vhope
p1801
Vfor
p1802
tp1803
a(VHave
p1804
Vyou
p1805
Vever
p1806
tp1807
a(Vby
p1808
Vthe
p1809
Vwinery
p1810
tp1811
a(Vupstaged
p1812
Vby
p1813
Vthe
p1814
tp1815
a(Vdown
p1816
Vto
p1817
VDitmars
p1818
tp1819
a(Vrefuses
p1820
Vto
p1821
Vstart
p1822
tp1823
a(Vnot
p1824
Vdisplayed
p1825
Vcorrectly
p1826
tp1827
a(Vrush
p1828
Vto
p1829
Vdrink
p1830
tp1831
a(Vand
p1832
VThe
p1833
VLion
p1834
tp1835
a(VJust
p1836
Vtell
p1837
Vhim
p1838
tp1839
a(Vclosing
p1840
Vall
p1841
Vwindows
p1842
tp1843
a(Vis
p1844
Veel
p1845
Vfrom
p1846
tp1847
a(Vwindows
p1848
Vare
p1849
Vclosed
p1850
tp1851
a(Von
p1852
VLong
p1853
VIsland
p1854
tp1855
a(Vbeen
p1856
Vthinking
p1857
Vabout
p1858
tp1859
a(Vride
p1860
Vthis
p1861
Vtrain
p1862
tp1863
a(VSave
p1864
Vall
p1865
Vfiles
p1866
tp1867
a(VTime
p1868
Vto
p1869
Vdrink
p1870
tp1871
a(Vno
p1872
Videa
p1873
Vhow
p1874
tp1875
a(Vthis
p1876
g1161
g627
tp1877
a(VSave
p1878
Vlink
p1879
Vas
p1880
tp1881
a(VThe
p1882
Vnext
p1883
Vstop
p1884
tp1885
a(g1537
Vvery
p1886
Vhungry
p1887
tp1888
a(Vcannot
p1889
Vbe
p1890
Vfound
p1891
tp1892
a(Vthe
p1893
VBlack
p1894
VPearl
p1895
tp1896
a(Vwindows
p1897
Vpop
p1898
Vup
p1899
tp1900
a(Vhooked
p1901
Vup
p1902
Vwith
p1903
tp1904
a(Vbookmark
p1905
Vtoolbar
p1906
Vfolder
p1907
tp1908
a(g272
Vfew
p1909
Vyears
p1910
tp1911
a(Vin
p1912
Vprint
p1913
Vpreview
p1914
tp1915
a(Vis
p1916
Vbigger
p1917
Vthan
p1918
tp1919
a(g286
g287
Vthe
p1920
tp1921
a(Vtell
p1922
Vus
p1923
Vwhere
p1924
tp1925
a(VGet
p1926
Vthem
p1927
Voff
p1928
tp1929
a(Verror
p1930
Vmessage
p1931
Vwhen
p1932
tp1933
a(Vread
p1934
Vthe
p1935
VBible
p1936
tp1937
a(VAdd
p1938
Van
p1939
Voption
p1940
tp1941
a(Vbookmark
p1942
Vcontext
p1943
Vmenu
p1944
tp1945
a(Vcrashes
p1946
Vwhen
p1947
Vattempting
p1948
tp1949
a(Vfor
p1950
Vtwo
p1951
Vmonths
p1952
tp1953
a(Vbookmarks
p1954
Vtoolbar
p1955
Vfolder
p1956
tp1957
a(Vwould
p1958
Vbe
p1959
Vawesome
p1960
tp1961
a(Vacross
p1962
Vthe
p1963
Vstreet
p1964
tp1965
a(Vswear
p1966
Vto
p1967
Vgod
p1968
tp1969
a(Vanother
p1970
Vyear
p1971
Vor
p1972
tp1973
a(Vno
p1974
Vmatter
p1975
Vwhat
p1976
tp1977
a(Vis
p1978
Vlarger
p1979
Vthan
p1980
tp1981
a(Vof
p1982
Vhot
p1983
Vair
p1984
tp1985
a(Vset
p1986
Vas
p1987
Vdefault
p1988
tp1989
a(Vin
p1990
VNew
p1991
VYork
p1992
tp1993
a(Vthe
p1994
g199
g200
tp1995
a(Vgets
p1996
Vstuck
p1997
Vin
p1998
tp1999
a(Vdepends
p2000
Von
p2001
Vhow
p2002
tp2003
a(VPlease
p2004
Vhelp
p2005
Vme
p2006
tp2007
a(VDid
p2008
Vyou
p2009
Vhear
p2010
tp2011
a(Vwhen
p2012
Vswitching
p2013
Vtabs
p2014
tp2015
a(g1032
V'm
p2016
Vsure
p2017
tp2018
a(Vve
p2019
Vslept
p2020
Vwith
p2021
tp2022
a(Vre
p2023
Van
p2024
Vasshole
p2025
tp2026
a(Vwhen
p2027
Vadding
p2028
Vbookmark
p2029
tp2030
a(Vlove
p2031
Vthis
p2032
Vcity
p2033
tp2034
a(g1314
g1315
g272
tp2035
a(g1506
g1507
Vdown
p2036
tp2037
a(Vget
p2038
Vrid
p2039
Vof
p2040
tp2041
a(Vneed
p2042
Vto
p2043
Vcalm
p2044
tp2045
a(Vcheated
p2046
Von
p2047
Vhis
p2048
tp2049
a(Vlady
p2050
Vfor
p2051
Vfriendship
p2052
tp2053
a(Vunderstand
p2054
Vwhy
p2055
Vhe
p2056
tp2057
a(VGood
p2058
Vintensity
p2059
Vand
p2060
tp2061
a(Vas
p2062
Vdefault
p2063
Vbrowser
p2064
tp2065
a(Vshould
p2066
Vbe
p2067
Vallowed
p2068
tp2069
a(Vopening
p2070
Vnew
p2071
Vwindows
p2072
tp2073
a(Vin
p2074
VPersonal
p2075
VToolbar
p2076
tp2077
a(Vswear
p2078
Vto
p2079
VGod
p2080
tp2081
a(Vin
p2082
Vcontent
p2083
Varea
p2084
tp2085
a(Von
p2086
Vnightly
p2087
Vbuild
p2088
tp2089
a(Vto
p2090
Vcrying
p2091
Vson
p2092
tp2093
a(Vs
p2094
Vgonna
p2095
Vwin
p2096
tp2097
a(Von
p2098
Vpay
p2099
Vphone
p2100
tp2101
a(Vthe
p2102
g619
g620
tp2103
a(g1537
Vso
p2104
Vglad
p2105
tp2106
a(Vlike
p2107
Vthree
p2108
Vtimes
p2109
tp2110
a(Vfreezes
p2111
Vwhen
p2112
Vtrying
p2113
tp2114
a(VHave
p2115
Vyou
p2116
Vtried
p2117
tp2118
a(Vhook
p2119
Vup
p2120
Vwith
p2121
tp2122
a(g272
VNew
p2123
VYorker
p2124
tp2125
a(VDouble
p2126
Vclicking
p2127
Von
p2128
tp2129
a(Vright
p2130
Vclick
p2131
Vcontext
p2132
tp2133
a(g272
Vbit
p2134
Vcoarse
p2135
tp2136
a(g272
Vbit
p2137
Vthin
p2138
tp2139
a(Vcan
p2140
g373
g374
tp2141
a(VOh
p2142
Vmy
p2143
VGod
p2144
tp2145
a(Vnot
p2146
Vso
p2147
Vkeen
p2148
tp2149
a(Vwhy
p2150
Vthey
p2151
Vcall
p2152
tp2153
a(VWait
p2154
g272
Vminute
p2155
tp2156
a(g272
Vfew
p2157
Vhours
p2158
tp2159
a(VWoman
p2160
Von
p2161
Vspeaker
p2162
tp2163
a(VDownload
p2164
VManager
p2165
Vdoesn
p2166
tp2167
a(Vthe
p2168
Vdifference
p2169
Vbetween
p2170
tp2171
a(g1537
Vso
p2172
Vexcited
p2173
tp2174
a(Vfrom
p2175
Vthis
p2176
Vproducer
p2177
tp2178
a(Vdown
p2179
Vto
p2180
Vearth
p2181
tp2182
a(Vdrop
p2183
Vdown
p2184
Vmenu
p2185
tp2186
a(Vve
p2187
Vhad
p2188
Vsex
p2189
tp2190
a(VAt
p2191
Vleast
p2192
g272
tp2193
a(Vat
p2194
Vthis
p2195
Vstage
p2196
tp2197
a(Vsort
p2198
Vof
p2199
Vthing
p2200
tp2201
a(VJesus
p2202
Vis
p2203
Vcoming
p2204
tp2205
a(VPlease
p2206
Vask
p2207
Vin
p2208
tp2209
a(Vstart
p2210
Vmenu
p2211
Vfolder
p2212
tp2213
a(Vfound
p2214
g272
Vwitch
p2215
tp2216
a(g1537
Vgonna
p2217
Vkill
p2218
tp2219
a(g272
Vpassenger
p2220
Vtrain
p2221
tp2222
a(VAdd
p2223
Vability
p2224
Vto
p2225
tp2226
a(Vthe
p2227
VMiddle
p2228
VEast
p2229
tp2230
a(VAdd
p2231
Vbookmark
p2232
Vdialog
p2233
tp2234
a(VIt
p2235
Vfeels
p2236
Vlike
p2237
tp2238
a(Vdrop
p2239
Vdown
p2240
Vbutton
p2241
tp2242
a(Vnext
p2243
g1387
g1388
tp2244
a(Vtell
p2245
Vthat
p2246
Vstory
p2247
tp2248
a(Vfell
p2249
Vin
p2250
Vlove
p2251
tp2252
a(g801
g802
Vwith
p2253
tp2254
a(g272
Vfew
p2255
Vseconds
p2256
tp2257
a(VThe
p2258
Vsun
p2259
Vis
p2260
tp2261
a(Vhave
p2262
Vno
p2263
Videa
p2264
tp2265
a(Vinstead
p2266
Vof
p2267
Vdownloading
p2268
tp2269
a(VDownload
p2270
Vmanager
p2271
Vshould
p2272
tp2273
a(Vve
p2274
Vnever
p2275
Vhad
p2276
tp2277
a(Vmore
p2278
Vor
p2279
Vless
p2280
tp2281
a(VDoes
p2282
Vthis
p2283
Vtrain
p2284
tp2285
a(VTeen
p2286
Vghetto
p2287
Vgirl
p2288
tp2289
a(VHave
p2290
Vyou
p2291
Vheard
p2292
tp2293
a(Vvisit
p2294
Vthis
p2295
Vpage
p2296
tp2297
a(Vbe
p2298
Vturned
p2299
Voff
p2300
tp2301
a(Vdown
p2302
Vthe
p2303
Vhill
p2304
tp2305
a(VDownload
p2306
VManager
p2307
Vshould
p2308
tp2309
a(g272
Vservice
p2310
Vdog
p2311
tp2312
a(Vthe
p2313
Vmaster
p2314
Vpassword
p2315
tp2316
a(Vhad
p2317
g272
Vthreesome
p2318
tp2319
a(Vmaking
p2320
Vfun
p2321
Vof
p2322
tp2323
a(VGive
p2324
Vme
p2325
Vsome
p2326
tp2327
a(Vparsing
p2328
Verror
p2329
Vin
p2330
tp2331
a(Vnot
p2332
Vworking
p2333
Vproperly
p2334
tp2335
a(VSave
p2336
g1078
g1079
tp2337
a(VWould
p2338
Vyou
p2339
Vplease
p2340
tp2341
a(Vwith
p2342
g812
g813
tp2343
a(Vbut
p2344
Vno
p2345
Vhurry
p2346
tp2347
a(Vsame
p2348
Vname
p2349
Vas
p2350
tp2351
a(VCrash
p2352
Vwhen
p2353
Vtrying
p2354
tp2355
a(VJavaScript
p2356
Verror
p2357
Vwhen
p2358
tp2359
a(Vthe
p2360
Vsecond
p2361
Vfloor
p2362
tp2363
a(Vdid
p2364
Vn't
p2365
Vsee
p2366
tp2367
a(Vbar
p2368
Vhas
p2369
Vfocus
p2370
tp2371
a(Vextension
p2372
Vis
p2373
Vinstalled
p2374
tp2375
a(Vis
p2376
Valready
p2377
Vinstalled
p2378
tp2379
a(Vhe
p2380
Vcheated
p2381
Von
p2382
tp2383
a(Vguy
p2384
Vwalking
p2385
Vdown
p2386
tp2387
a(Vdoes
p2388
Vnot
p2389
Vexist
p2390
tp2391
a(Vimages
p2392
Vto
p2393
Vdisk
p2394
tp2395
a(Vat
p2396
Vsome
p2397
Vpoint
p2398
tp2399
a(Vfor
p2400
Vfun
p2401
Vtimes
p2402
tp2403
a(Vtake
p2404
Vcare
p2405
Vof
p2406
tp2407
a(VAre
p2408
Vyou
p2409
Vsure
p2410
tp2411
a(VCrash
p2412
Vwhen
p2413
Vloading
p2414
tp2415
a(Vif
p2416
Vmultiple
p2417
Vtabs
p2418
tp2419
a(Vin
p2420
VNew
p2421
VJersey
p2422
tp2423
a(Vshould
p2424
Vbe
p2425
Vdisabled
p2426
tp2427
a(Vwere
p2428
Vtalking
p2429
Vabout
p2430
tp2431
a(Vtrying
p2432
Vto
p2433
Vcatch
p2434
tp2435
a(Vroom
p2436
Vdamn
p2437
Vit
p2438
tp2439
a(Vleft
p2440
Vcorner
p2441
Vof
p2442
tp2443
a(g1032
Vdont
p2444
Vneed
p2445
tp2446
a(Verror
p2447
Vwhen
p2448
Vtrying
p2449
tp2450
a(Vdo
p2451
Vthey
p2452
Vspeak
p2453
tp2454
a(VCan
p2455
Vyou
p2456
Vimagine
p2457
tp2458
a(Vopens
p2459
Vnew
p2460
Vwindow
p2461
tp2462
a(Vwe
p2463
g2428
g2429
tp2464
a(Vis
p2465
Valready
p2466
Vrunning
p2467
tp2468
a(Vget
p2469
Vhit
p2470
Vby
p2471
tp2472
a(Vfrom
p2473
VDownload
p2474
VManager
p2475
tp2476
a(VOpen
p2477
VLink
p2478
Vin
p2479
tp2480
a(g2429
g2430
Vhow
p2481
tp2482
a(Vpm
p2483
Vif
p2484
g719
tp2485
a(Vve
p2486
Vnever
p2487
Veven
p2488
tp2489
a(Vno
p2490
Videa
p2491
Vwhat
p2492
tp2493
a(Vbot
p2494
Vfor
p2495
Vyour
p2496
tp2497
a(g1676
g1677
Vswamp
p2498
tp2499
a(VPlease
p2500
Vcheck
p2501
Vthe
p2502
tp2503
a(Vdog
p2504
Vlooks
p2505
Vlike
p2506
tp2507
a(Vpiece
p2508
Vof
p2509
Vshit
p2510
tp2511
a(Vat
p2512
Veach
p2513
Vother
p2514
tp2515
a(Vreminds
p2516
Vme
p2517
Vof
p2518
tp2519
a(Vhanging
p2520
Vout
p2521
Vwith
p2522
tp2523
a(Vguys
p2524
Vpm
p2525
Vme
p2526
tp2527
a(Vhad
p2528
g272
Vdream
p2529
tp2530
a(VCrash
p2531
Vwhen
p2532
Vopening
p2533
tp2534
a(Vmessage
p2535
Vwhen
p2536
Vopening
p2537
tp2538
a(Vattempting
p2539
Vto
p2540
Vload
p2541
tp2542
a(Vwanna
p2543
Vchat
p2544
g1032
tp2545
a(Vdoes
p2546
Vnot
p2547
Vrespond
p2548
tp2549
a(Vdoes
p2550
Vnot
p2551
Vappear
p2552
tp2553
a(Vrest
p2554
Vof
p2555
Vus
p2556
tp2557
a(VAbility
p2558
Vto
p2559
Vset
p2560
tp2561
a(Vkind
p2562
Vof
p2563
Vperson
p2564
tp2565
a(Vcrashes
p2566
Von
p2567
Vstartup
p2568
tp2569
a(Vcannot
p2570
Vbe
p2571
Vused
p2572
tp2573
a(Vthe
p2574
Vblack
p2575
Vspot
p2576
tp2577
a(Vhe
p2578
Vthinks
p2579
Vhe
p2580
tp2581
a(Vin
p2582
g333
g334
tp2583
a(g272
Vbit
p2584
Vdull
p2585
tp2586
a(g272
Vfew
p2587
Vminutes
p2588
tp2589
a(Vis
p2590
g313
g314
tp2591
a(Vback
p2592
Vor
p2593
Vforward
p2594
tp2595
a(VEnter
p2596
Vin
p2597
Vsearch
p2598
tp2599
a(Vwelcome
p2600
Vto
p2601
Vroom
p2602
tp2603
a(Vhand
p2604
Vside
p2605
Vof
p2606
tp2607
a(Vgirls
p2608
Vpm
p2609
Vme
p2610
tp2611
a(Vwas
p2612
g2520
g2521
tp2613
a(Vas
p2614
Vopposed
p2615
Vto
p2616
tp2617
a(Vexactly
p2618
Vthe
p2619
Vsame
p2620
tp2621
a(VNorrington
p2622
Vand
p2623
VWill
p2624
tp2625
a(Vthey
p2626
Vgive
p2627
Vus
p2628
tp2629
a(g2496
g1042
g321
tp2630
a(g1477
g1478
Vdead
p2631
tp2632
a(Vinto
p2633
Vthe
p2634
Vchasm
p2635
tp2636
a(Vat
p2637
Vthe
p2638
Vexpense
p2639
tp2640
a(Vseashells
p2641
Vat
p2642
Vthe
p2643
tp2644
a(Vhangs
p2645
Vwhen
p2646
Vtrying
p2647
tp2648
a(Vdown
p2649
Vlocation
p2650
Vbar
p2651
tp2652
a(Vmore
p2653
Vthan
p2654
Vone
p2655
tp2656
a(g272
Vbit
p2657
Vsimple
p2658
tp2659
a(VDragging
p2660
g272
Vbookmark
p2661
tp2662
a(Vopening
p2663
Vlinks
p2664
Vfrom
p2665
tp2666
a(VShut
p2667
Vthe
p2668
Vfuck
p2669
tp2670
a(VThe
p2671
Vonly
p2672
Vthing
p2673
tp2674
a(Vfail
p2675
Vto
p2676
Vload
p2677
tp2678
a(Vaboard
p2679
Vthe
p2680
VBlack
p2681
tp2682
a(g2484
g719
Vtry
p2683
tp2684
a(Vbreaking
p2685
Vup
p2686
Vwith
p2687
tp2688
a(VFirebird
p2689
Vrefuses
p2690
Vto
p2691
tp2692
a(Vgirl
p2693
Von
p2694
Vtour
p2695
tp2696
a(VTeen
p2697
VAsian
p2698
Vboy
p2699
tp2700
a(Vfrom
p2701
VFile
p2702
Vmenu
p2703
tp2704
a(Vlink
p2705
Vto
p2706
Vdisk
p2707
tp2708
a(Vcrashes
p2709
Vwhen
p2710
Vtrying
p2711
tp2712
a(Vdefault
p2713
Vhome
p2714
Vpage
p2715
tp2716
a(Vlinks
p2717
Vfrom
p2718
Vother
p2719
tp2720
a(g977
g978
Vto
p2721
tp2722
a(Vmust
p2723
Vhave
p2724
Vbeen
p2725
tp2726
a(VCould
p2727
Vdo
p2728
Vwith
p2729
tp2730
a(Vpops
p2731
Vup
p2732
Vwhen
p2733
tp2734
a(Vhangs
p2735
Von
p2736
Vstartup
p2737
tp2738
a(g205
g864
Vback
p2739
tp2740
a(Vmultiple
p2741
Vtabs
p2742
Vare
p2743
tp2744
a(Vmay
p2745
Vhave
p2746
Vbeen
p2747
tp2748
a(VJust
p2749
Vlook
p2750
Vat
p2751
tp2752
a(Vdoes
p2753
Vnot
p2754
Vwork
p2755
tp2756
a(Vtake
p2757
Vit
p2758
Vanymore
p2759
tp2760
a(Vis
p2761
Vvery
p2762
Vslow
p2763
tp2764
a(Vwife
p2765
Vand
p2766
Vkids
p2767
tp2768
a(Vnew
p2769
Vtab
p2770
Vopened
p2771
tp2772
a(VSouthern
p2773
Vwoman
p2774
Von
p2775
tp2776
a(Vbutton
p2777
Vdoes
p2778
Vnothing
p2779
tp2780
a(Vsave
p2781
Vas
p2782
Vdialog
p2783
tp2784
a(Vin
p2785
VPage
p2786
VInfo
p2787
tp2788
a(VAre
p2789
Vyou
p2790
Vdrunk
p2791
tp2792
a(Vyou
p2793
g607
g608
tp2794
a(Vhave
p2795
Vits
p2796
Vown
p2797
tp2798
a(g588
g589
Vto
p2799
tp2800
a(Vthe
p2801
Vsmall
p2802
Vchest
p2803
tp2804
a(Von
p2805
Vpersonal
p2806
Vtoolbar
p2807
tp2808
a(Vtoolbar
p2809
Vis
p2810
Vhidden
p2811
tp2812
a(g272
Vfew
p2813
Vdays
p2814
tp2815
a(Vshould
p2816
Vbe
p2817
Vable
p2818
tp2819
a(g272
Vgreat
p2820
Videa
p2821
tp2822
a(g710
g272
Vbit
p2823
tp2824
a(Vreminded
p2825
Vme
p2826
Vof
p2827
tp2828
a(Vthe
p2829
g587
g588
tp2830
a(Vthought
p2831
Vwe
p2832
Vwere
p2833
tp2834
a(VHave
p2835
Vyou
p2836
Vseen
p2837
tp2838
a(Vtrying
p2839
Vto
p2840
Vaccess
p2841
tp2842
a(Vswitch
p2843
Vto
p2844
Vanother
p2845
tp2846
a(Vneed
p2847
g272
Vcigarette
p2848
tp2849
a(VOne
p2850
Vof
p2851
Vthose
p2852
tp2853
a(VSuit
p2854
Von
p2855
Vcell
p2856
tp2857
a(VBlack
p2858
VPearl
p2859
Vis
p2860
tp2861
a(Vpm
p2862
Vme
p2863
Vif
p2864
tp2865
a(Vtwo
p2866
VFirefox
p2867
Vwindows
p2868
tp2869
a(Vwas
p2870
Vthinking
p2871
Vabout
p2872
tp2873
a(Vmake
p2874
Vsure
p2875
Vhe
p2876
tp2877
a(VMiddle
p2878
Vclick
p2879
Von
p2880
tp2881
a(Vnumber
p2882
Vof
p2883
Vpages
p2884
tp2885
a(Vaddress
p2886
Vbar
p2887
Vdoes
p2888
tp2889
a(Vnot
p2890
Vbeing
p2891
Vsaved
p2892
tp2893
a(Vwindow
p2894
Vopened
p2895
Vby
p2896
tp2897
a(g1172
g2054
g2055
tp2898
a(Vwork
p2899
Vwhen
p2900
Vviewing
p2901
tp2902
a(g1315
g272
g924
tp2903
a(VIt
p2904
Vsmells
p2905
Vlike
p2906
tp2907
a(Vopens
p2908
Vnew
p2909
Vtab
p2910
tp2911
a(Vlook
p2912
Vat
p2913
Vus
p2914
tp2915
a(Vtoolbar
p2916
Vbuttons
p2917
Vshould
p2918
tp2919
a(Vgroup
p2920
Vof
p2921
Vtabs
p2922
tp2923
a(Varrives
p2924
Vat
p2925
g1893
tp2926
a(Vyears
p2927
Vago
p2928
Vand
p2929
tp2930
a(Vshut
p2931
Vthe
p2932
Vfuck
p2933
tp2934
a(Vto
p2935
g211
g212
tp2936
a(Velegant
p2937
Vand
p2938
Vfine
p2939
tp2940
a(g1032
Vdo
p2941
Vn't
p2942
tp2943
a(Vdoes
p2944
Vnot
p2945
Vrecognize
p2946
tp2947
a(Vnot
p2948
Vdisplay
p2949
Vcorrectly
p2950
tp2951
a(Vtoo
p2952
Vlazy
p2953
Vto
p2954
tp2955
a(VWhat
p2956
Vkind
p2957
Vof
p2958
tp2959
a(Vbroke
p2960
Vup
p2961
Vwith
p2962
tp2963
a(g1537
Vjust
p2964
Vtryin
p2965
tp2966
a(VCould
p2967
Vyou
p2968
Vtell
p2969
tp2970
a(g1172
Vmake
p2971
Vsense
p2972
tp2973
a(VCancel
p2974
Vbutton
p2975
Vin
p2976
tp2977
a(VIt
p2978
Vsounds
p2979
Vlike
p2980
tp2981
a(Vwere
p2982
Vjust
p2983
Vtalking
p2984
tp2985
a(Vright
p2986
Vclick
p2987
Vmenu
p2988
tp2989
a(Vwith
p2990
Vmultiple
p2991
Vtabs
p2992
tp2993
a(Vmake
p2994
Vfun
p2995
Vof
p2996
tp2997
a(VNew
p2998
VYork
p2999
Vguy
p3000
tp3001
a(Vcrash
p3002
Vwhen
p3003
Vopening
p3004
tp3005
a(Voption
p3006
Vto
p3007
Vdisable
p3008
tp3009
a(g2642
g2643
Vseashore
p3010
tp3011
a(g272
Vpdf
p3012
Vfile
p3013
tp3014
a(g2147
g2148
Von
p3015
tp3016
a(Vin
p3017
g1472
g1473
tp3018
a(Vseemed
p3019
g272
Vbit
p3020
tp3021
a(VIt
p3022
Vfelt
p3023
Vlike
p3024
tp3025
a(Vdoes
p3026
Vnot
p3027
Vmatch
p3028
tp3029
a(g1537
Vso
p3030
Vhungry
p3031
tp3032
a(Vin
p3033
Vaddress
p3034
Vbar
p3035
tp3036
a(Vstart
p3037
Vdue
p3038
Vto
p3039
tp3040
a(Vis
p3041
Vyour
p3042
Vquest
p3043
tp3044
a(Vnew
p3045
Vtab
p3046
Vinstead
p3047
tp3048
a(VBrowser
p3049
Vcrashes
p3050
Vwhen
p3051
tp3052
a(Vmozilla
p3053
Vand
p3054
Vphoenix
p3055
tp3056
a(VWill
p3057
Vsees
p3058
Vthe
p3059
tp3060
a(Vopening
p3061
Vnew
p3062
Vwindow
p3063
tp3064
a(Vand
p3065
Vforward
p3066
Vbuttons
p3067
tp3068
a(Vshown
p3069
Vin
p3070
Vlocation
p3071
tp3072
a(g1805
g1806
Vtried
p3073
tp3074
a(Vis
p3075
Vyour
p3076
Vpurpose
p3077
tp3078
a(Vlate
p3079
Vfor
p3080
Vwork
p3081
tp3082
a(VNo
p3083
g1196
g1197
tp3084
a(Vallow
p3085
Vuser
p3086
Vto
p3087
tp3088
a(Vbut
p3089
g1032
V'll
p3090
tp3091
a(Vnot
p3092
Vdisplay
p3093
Vproperly
p3094
tp3095
a(Vcut
p3096
Voff
p3097
Vmy
p3098
tp3099
a(Vtry
p3100
Vto
p3101
Vdelete
p3102
tp3103
a(Vno
p3104
Vone
p3105
Velse
p3106
tp3107
a(Vthe
p3108
Vmain
p3109
Vroom
p3110
tp3111
a(Vdoes
p3112
Vnot
p3113
Vallow
p3114
tp3115
a(Vbreak
p3116
Vup
p3117
Vwith
p3118
tp3119
a(Vlink
p3120
Vis
p3121
Vclicked
p3122
tp3123
a(Vworks
p3124
Vfine
p3125
Vin
p3126
tp3127
a(Vgrew
p3128
Vup
p3129
Vin
p3130
tp3131
a(Vdown
p3132
Vthe
p3133
Vstairs
p3134
tp3135
a(Vsmart
p3136
Vand
p3137
Vshit
p3138
tp3139
a(VMan
p3140
g753
g754
tp3141
a(Vpunch
p3142
Vher
p3143
Vin
p3144
tp3145
a(Vgoing
p3146
Vto
p3147
VQueens
p3148
tp3149
a(g1537
Vtalking
p3150
Vabout
p3151
tp3152
a(VSo
p3153
Vwe
p3154
Vwent
p3155
tp3156
a(Vsubmit
p3157
Vthe
p3158
Vform
p3159
tp3160
a(Vglass
p3161
Vof
p3162
Vwine
p3163
tp3164
a(Vfor
p3165
Vsome
p3166
Vreason
p3167
tp3168
a(Vhow
p3169
Vare
p3170
g719
tp3171
a(VBy
p3172
Vthe
p3173
Vway
p3174
tp3175
a(Vopen
p3176
Vnew
p3177
Vtab
p3178
tp3179
a(Vwould
p3180
Vbe
p3181
Vcool
p3182
tp3183
a(Vfull
p3184
g1982
g1983
tp3185
a(Vas
p3186
Vbig
p3187
Vas
p3188
tp3189
a(Vtold
p3190
Vhim
p3191
Vwe
p3192
tp3193
a(Vpoints
p3194
Vit
p3195
Vat
p3196
tp3197
a(Vafter
p3198
g1840
g1841
tp3199
a(Vmight
p3200
Vhave
p3201
Vbeen
p3202
tp3203
a(Vdoes
p3204
Vnot
p3205
Vreturn
p3206
tp3207
a(Vdo
p3208
Vn't
p3209
Vtake
p3210
tp3211
a(Vas
p3212
Vlong
p3213
Vas
p3214
tp3215
a(Vchange
p3216
Vto
p3217
Vspare
p3218
tp3219
a(Vhow
p3220
Vare
p3221
Vya
p3222
tp3223
a(Vwants
p3224
Vto
p3225
Vtalk
p3226
tp3227
a(Vnose
p3228
Vand
p3229
Vpalate
p3230
tp3231
a(VHide
p3232
Vthe
p3233
Vtab
p3234
tp3235
a(Vknow
p3236
Vthe
p3237
Vanswers
p3238
tp3239
a(VJack
p3240
Vlooks
p3241
Vat
p3242
tp3243
a(Vdoes
p3244
Vnot
p3245
Vdisplay
p3246
tp3247
a(Vme
p3248
Vsome
p3249
Vfuckin
p3250
tp3251
a(Vperhaps
p3252
g272
Vtouch
p3253
tp3254
a(VUnable
p3255
Vto
p3256
Vchange
p3257
tp3258
a(Vas
p3259
Voften
p3260
Vwith
p3261
tp3262
a(VBrowser
p3263
Vcrash
p3264
Vwhen
p3265
tp3266
a(Vshould
p3267
Vbe
p3268
Vavailable
p3269
tp3270
a(Vyou
p3271
Vfucking
p3272
Vasshole
p3273
tp3274
a(Vre
p3275
Vnot
p3276
Vallowed
p3277
tp3278
a(Vmy
p3279
Vparents
p3280
Vare
p3281
tp3282
a(g279
Vfrom
p3283
g272
tp3284
a(Vwhen
p3285
Vusing
p3286
Vautocomplete
p3287
tp3288
a(Vfails
p3289
Vto
p3290
Vlaunch
p3291
tp3292
a(Vgo
p3293
Vto
p3294
Vchurch
p3295
tp3296
a(VUnable
p3297
Vto
p3298
Vinstall
p3299
tp3300
a(VOpen
p3301
Vthe
p3302
Vdoor
p3303
tp3304
a(Vliving
p3305
Vin
p3306
VNew
p3307
tp3308
a(Vopening
p3309
Vnew
p3310
Vtab
p3311
tp3312
a(Vusing
p3313
Vback
p3314
Vbutton
p3315
tp3316
a(Vdownload
p3317
Vmanager
p3318
Vdoesn
p3319
tp3320
a(Vtake
p3321
g272
Vpicture
p3322
tp3323
a(Valready
p3324
Vgot
p3325
Vone
p3326
tp3327
a(Vfind
p3328
Vthe
p3329
VHoly
p3330
tp3331
a(Vpick
p3332
Vup
p3333
Vyour
p3334
tp3335
a(Vdid
p3336
Vn't
p3337
Vget
p3338
tp3339
a(Vbuttons
p3340
Vnot
p3341
Vworking
p3342
tp3343
a(Vlot
p3344
Vof
p3345
Vmoney
p3346
tp3347
a(Vgonna
p3348
Vcome
p3349
Vout
p3350
tp3351
a(Vwhat
p3352
Vthat
p3353
Vmeans
p3354
tp3355
a(VAre
p3356
Vyou
p3357
Vsaying
p3358
tp3359
a(VHow
p3360
Vlong
p3361
Vhave
p3362
tp3363
a(Vsort
p3364
Vof
p3365
Vwine
p3366
tp3367
a(Vbutton
p3368
Vis
p3369
Vclicked
p3370
tp3371
a(Vand
p3372
g277
g278
tp3373
a(VCrash
p3374
Vwhen
p3375
Vclicking
p3376
tp3377
a(VSave
p3378
Vpage
p3379
Vas
p3380
tp3381
a(Vit
p3382
Vturns
p3383
Vout
p3384
tp3385
a(g1537
Vpm
p3386
Vme
p3387
tp3388
a(Vfrom
p3389
Vaddress
p3390
Vbar
p3391
tp3392
a(VHow
p3393
Vmuch
p3394
Vdo
p3395
tp3396
a(VShe
p3397
Vsaid
p3398
Vshe
p3399
tp3400
a(Vshit
p3401
Vis
p3402
Vmad
p3403
tp3404
a(g272
Vlittle
p3405
Vlight
p3406
tp3407
a(Vsort
p3408
Vof
p3409
Vway
p3410
tp3411
a(Vhome
p3412
Vpage
p3413
Vbutton
p3414
tp3415
a(Vto
p3416
Vinstall
p3417
Vthemes
p3418
tp3419
a(VIllinois
p3420
Vis
p3421
Vin
p3422
tp3423
a(Vtrying
p3424
Vto
p3425
Vsell
p3426
tp3427
a(Vpassed
p3428
Vout
p3429
Von
p3430
tp3431
a(VDid
p3432
Vyou
p3433
Vsee
p3434
tp3435
a(g839
g840
Vto
p3436
tp3437
a(Vin
p3438
Vlocation
p3439
Vbar
p3440
tp3441
a(Vdoes
p3442
Vnot
p3443
Vsend
p3444
tp3445
a(VNeed
p3446
Voption
p3447
Vto
p3448
tp3449
a(Vthe
p3450
Vorange
p3451
Vtrain
p3452
tp3453
a(g1537
Vthinking
p3454
Vabout
p3455
tp3456
a(Vwould
p3457
Vsleep
p3458
Vwith
p3459
tp3460
a(Vwhy
p3461
Vwe
p3462
Vgot
p3463
tp3464
a(Vcrash
p3465
Vwhen
p3466
Vtrying
p3467
tp3468
a(Vcreating
p3469
g272
Vnew
p3470
tp3471
a(VFind
p3472
Vin
p3473
VThis
p3474
tp3475
a(VWho
p3476
Vthe
p3477
Vhell
p3478
tp3479
a(Vnew
p3480
Vwindow
p3481
Vinstead
p3482
tp3483
a(Vtrying
p3484
Vto
p3485
Vload
p3486
tp3487
a(Vdoes
p3488
Vnot
p3489
Vrespect
p3490
tp3491
a(Vdoes
p3492
Vnot
p3493
Vblock
p3494
tp3495
a(VOpen
p3496
Vin
p3497
Vtabs
p3498
tp3499
a(Vmoney
p3500
Vto
p3501
Vbuy
p3502
tp3503
a(Vhow
p3504
Vyou
p3505
Vdoin
p3506
tp3507
a(Vgetting
p3508
Voff
p3509
Vat
p3510
tp3511
a(Vappear
p3512
Von
p3513
Vwrong
p3514
tp3515
a(VNew
p3516
VYork
p3517
Vis
p3518
tp3519
a(Vbit
p3520
Vmore
p3521
Vtime
p3522
tp3523
a(g2094
Vmessed
p3524
Vup
p3525
tp3526
a(Vseems
p3527
g272
Vbit
p3528
tp3529
a(Vdoes
p3530
Vnot
p3531
Vfunction
p3532
tp3533
a(Vfails
p3534
Vto
p3535
Vcopy
p3536
tp3537
a(Vcan
p3538
Vdo
p3539
Vwhatever
p3540
tp3541
a(Vthe
p3542
Vmusic
p3543
Vstops
p3544
tp3545
a(g1537
g980
g892
tp3546
a(VHave
p3547
g272
Vnice
p3548
tp3549
a(Vfor
p3550
Vdrinking
p3551
Vnow
p3552
tp3553
a(Vfor
p3554
Vthe
p3555
Vinterruption
p3556
tp3557
a(Vneed
p3558
Vto
p3559
Vlearn
p3560
tp3561
a(Vcrap
p3562
Vout
p3563
Vof
p3564
tp3565
a(g1537
Vbetter
p3566
Vthan
p3567
tp3568
a(VTeen
p3569
Vtourist
p3570
Vgirl
p3571
tp3572
a(VGood
p3573
Vbalance
p3574
Vand
p3575
tp3576
a(g1172
Vdelete
p3577
Vbookmarks
p3578
tp3579
a(g1172
Vimport
p3580
Vbookmarks
p3581
tp3582
a(VFirebird
p3583
Vcrashes
p3584
Vwhen
p3585
tp3586
a(Vfirefox
p3587
Vcrashes
p3588
Vwhen
p3589
tp3590
a(Vwhether
p3591
Vor
p3592
Vnot
p3593
tp3594
a(Vquite
p3595
g272
Vlot
p3596
tp3597
a(Vbut
p3598
Vit
p3599
Vhasn
p3600
tp3601
a(Vafter
p3602
g3061
g3062
tp3603
a(Vin
p3604
VDownload
p3605
VManager
p3606
tp3607
a(Vat
p3608
Vleast
p3609
Vhe
p3610
tp3611
a(g1574
Vrather
p3612
Vhave
p3613
tp3614
a(Vhad
p3615
Vsex
p3616
Vwith
p3617
tp3618
a(Vlooking
p3619
Vforward
p3620
Vto
p3621
tp3622
a(g1765
g1766
Vany
p3623
tp3624
a(Vtags
p3625
Vdo
p3626
Vnot
p3627
tp3628
a(Vfor
p3629
Vdrinking
p3630
Vover
p3631
tp3632
a(g1845
g1846
Vthe
p3633
tp3634
a(Vemerge
p3635
Vfrom
p3636
Vthe
p3637
tp3638
a(VCrash
p3639
Vwhen
p3640
Vusing
p3641
tp3642
a(VOn
p3643
Vthe
p3644
Vpalate
p3645
tp3646
a(Vin
p3647
VNew
p3648
VTab
p3649
tp3650
a(Vwhen
p3651
Vvisiting
p3652
Vthis
p3653
tp3654
a(Vthe
p3655
Vleft
p3656
Vside
p3657
tp3658
a(Vcrash
p3659
Vwhen
p3660
Vclicking
p3661
tp3662
a(Vstill
p3663
g272
Vvirgin
p3664
tp3665
a(Vthe
p3666
Vprevious
p3667
Vwine
p3668
tp3669
a(g2385
g2386
Vthe
p3670
tp3671
a(Vlooks
p3672
Vdown
p3673
Vat
p3674
tp3675
a(Vin
p3676
VAdd
p3677
VBookmark
p3678
tp3679
a(Vdoes
p3680
Vnot
p3681
Vsupport
p3682
tp3683
a(Vtry
p3684
Vto
p3685
Vprint
p3686
tp3687
a.